(dp0
S'cookies'
p1
(dp2
S'wxloadtime'
p3
S'1530451525'
p4
sS'webwx_data_ticket'
p5
S'gSct8EvtL5ffstaaq/uyn8DL'
p6
sS'wxuin'
p7
S'1445792084'
p8
sS'login_frequency'
p9
S'2'
p10
sS'MM_WX_NOTIFY_STATE'
p11
S'1'
p12
sS'MM_WX_SOUND_STATE'
p13
g12
sS'webwx_auth_ticket'
p14
S'CIsBENKY5aADGoAB7hHmQATvX2KWpAbtpSqORhVQMYtC8VeaZA8eBY+Tq8tGvCa1HyW63cqaiXiAhIsy+N/85cubtAyfGenaZtGJrhC6fE1GTq4ZOrPpG+a8Tlt4k0VEgPSeoe3out43Pm9K4px4uKzFPdfH47MKqU0NFepV7Nob+vOBK00Yc9OS6aA='
p15
sS'last_wxuin'
p16
S'1445792084'
p17
sS'webwxuvid'
p18
S'f8cb6c6116c840a63f1c7bdc8e049a630b8946d4100482a000756cbedca94b5a548a5d65c9e82aad2221ef2d910bc102'
p19
sS'wxpluginkey'
p20
S'1530450297'
p21
sS'wxsid'
p22
S'aqQR/6XHED5M8cqe'
p23
sS'mm_lang'
p24
S'zh_CN'
p25
ssS'version'
p26
S'1.3.10'
p27
sS'storage'
p28
(dp29
S'userName'
p30
V@71fedf5e63b59b938a3274a90c5481413e27c1e283aae1fe8ff13f59d56b6a5e
p31
sS'lastInputUserName'
p32
NsS'memberList'
p33
ccopy_reg
_reconstructor
p34
(citchat.storage.templates
ContactList
p35
c__builtin__
list
p36
(lp37
g34
(citchat.storage.templates
User
p38
c__builtin__
dict
p39
(dp40
S'UserName'
p41
g31
sS'City'
p42
S''
p43
sS'DisplayName'
p44
g43
sS'UniFriend'
p45
I0
sS'OwnerUin'
p46
I0
sS'MemberList'
p47
g34
(g35
g36
(lp48
tp49
Rp50
I1
bsS'PYQuanPin'
p51
V
p52
sS'RemarkPYInitial'
p53
g52
sS'Uin'
p54
I1445792084
sS'AppAccountFlag'
p55
I0
sS'VerifyFlag'
p56
I0
sS'Province'
p57
g43
sS'KeyWord'
p58
g43
sS'RemarkName'
p59
g52
sS'PYInitial'
p60
g52
sS'ChatRoomId'
p61
I0
sS'HideInputBarFlag'
p62
I0
sVHeadImgFlag
p63
I1
sS'EncryChatRoomId'
p64
g43
sS'AttrStatus'
p65
I0
sS'SnsFlag'
p66
I17
sS'MemberCount'
p67
I0
sVWebWxPluginSwitch
p68
I0
sS'Alias'
p69
g43
sS'Signature'
p70
V\u5de5\u6b32\u5584\u5176\u4e8b\u5fc5\u5148\u5229\u5176\u5668
p71
sS'ContactFlag'
p72
I0
sS'NickName'
p73
V\u30a2\u30a4\u30ed\u30cb\u30fc
p74
sS'RemarkPYQuanPin'
p75
g52
sS'HeadImgUrl'
p76
V/cgi-bin/mmwebwx-bin/webwxgeticon?seq=1309560432&username=@71fedf5e63b59b938a3274a90c5481413e27c1e283aae1fe8ff13f59d56b6a5e&skey=@crypt_1196b7ca_75987b9c5ee6de072a03bdf8df0976ed
p77
sS'Sex'
p78
I1
sS'StarFriend'
p79
I0
sS'Statues'
p80
I0
stp81
Rp82
I1
bag34
(g38
g39
(dp83
VUserName
p84
V@e966c8f6fac5d2330f10517eda485c5021967a57610b40c0363dc150effa59ca
p85
sVCity
p86
V\u9ec4\u5188
p87
sVSnsFlag
p88
I49
sVDisplayName
p89
g52
sVUniFriend
p90
I0
sVMemberCount
p91
I0
sVOwnerUin
p92
I0
sVMemberList
p93
g50
sVAlias
p94
g52
sVPYQuanPin
p95
Vchenwei
p96
sVSignature
p97
g52
sVRemarkPYInitial
p98
g52
sVContactFlag
p99
I3
sVUin
p100
I0
sVNickName
p101
V\u9648\u5a01
p102
sVAppAccountFlag
p103
I0
sVVerifyFlag
p104
I0
sVRemarkPYQuanPin
p105
g52
sVHeadImgUrl
p106
V/cgi-bin/mmwebwx-bin/webwxgeticon?seq=673554727&username=@e966c8f6fac5d2330f10517eda485c5021967a57610b40c0363dc150effa59ca&skey=@crypt_1196b7ca_75987b9c5ee6de072a03bdf8df0976ed
p107
sVKeyWord
p108
g52
sVProvince
p109
V\u6e56\u5317
p110
sVPYInitial
p111
VCW
p112
sVRemarkName
p113
g52
sVIsOwner
p114
I0
sVSex
p115
I1
sVStarFriend
p116
I0
sVHideInputBarFlag
p117
I0
sVChatRoomId
p118
I0
sVEncryChatRoomId
p119
g52
sVAttrStatus
p120
I102439
sVStatues
p121
I0
stp122
Rp123
I1
bag34
(g38
g39
(dp124
VUserName
p125
V@f995e5ce12658781cc53ea335f64f63bdcaea3dabd19201dc3e2825ab217dbac
p126
sVCity
p127
g52
sVSnsFlag
p128
I1
sVDisplayName
p129
g52
sVUniFriend
p130
I0
sVMemberCount
p131
I0
sVOwnerUin
p132
I0
sVMemberList
p133
g50
sVAlias
p134
g52
sVPYQuanPin
p135
Vdianpienaila
p136
sVSignature
p137
g52
sVRemarkPYInitial
p138
g52
sVContactFlag
p139
I98563
sVUin
p140
I0
sVNickName
p141
V\u4e36\u4e3f\u5948\u843d
p142
sVAppAccountFlag
p143
I0
sVVerifyFlag
p144
I0
sVRemarkPYQuanPin
p145
g52
sVHeadImgUrl
p146
V/cgi-bin/mmwebwx-bin/webwxgeticon?seq=673556095&username=@f995e5ce12658781cc53ea335f64f63bdcaea3dabd19201dc3e2825ab217dbac&skey=@crypt_1196b7ca_75987b9c5ee6de072a03bdf8df0976ed
p147
sVKeyWord
p148
g52
sVProvince
p149
g52
sVPYInitial
p150
VDPNL
p151
sVRemarkName
p152
g52
sVIsOwner
p153
I0
sVSex
p154
I0
sVStarFriend
p155
I0
sVHideInputBarFlag
p156
I0
sVChatRoomId
p157
I0
sVEncryChatRoomId
p158
g52
sVAttrStatus
p159
I4197
sVStatues
p160
I0
stp161
Rp162
I1
bag34
(g38
g39
(dp163
VUserName
p164
V@bed302961c967f7cd13977521f25b2837ecf4c34acbc74298c5d0c57c4c6ff78
p165
sVCity
p166
V\u6f5c\u6c5f
p167
sVSnsFlag
p168
I177
sVDisplayName
p169
g52
sVUniFriend
p170
I0
sVMemberCount
p171
I0
sVOwnerUin
p172
I0
sVMemberList
p173
g50
sVAlias
p174
g52
sVPYQuanPin
p175
Vxiangjinhu
p176
sVSignature
p177
V\u867d\u77e5\u5927\u6d77\u7684\u6df1\u9083\uff0c\u4f46\u4ecd\u4e3a\u6361\u5230\u8d1d\u58f3\u800c\u6b22\u547c\uff01
p178
sVRemarkPYInitial
p179
g52
sVContactFlag
p180
I3
sVUin
p181
I0
sVNickName
p182
V\u5411\u664b\u864e
p183
sVAppAccountFlag
p184
I0
sVVerifyFlag
p185
I0
sVRemarkPYQuanPin
p186
g52
sVHeadImgUrl
p187
V/cgi-bin/mmwebwx-bin/webwxgeticon?seq=672404557&username=@bed302961c967f7cd13977521f25b2837ecf4c34acbc74298c5d0c57c4c6ff78&skey=@crypt_1196b7ca_75987b9c5ee6de072a03bdf8df0976ed
p188
sVKeyWord
p189
g52
sVProvince
p190
V\u6e56\u5317
p191
sVPYInitial
p192
VXJH
p193
sVRemarkName
p194
g52
sVIsOwner
p195
I0
sVSex
p196
I1
sVStarFriend
p197
I0
sVHideInputBarFlag
p198
I0
sVChatRoomId
p199
I0
sVEncryChatRoomId
p200
g52
sVAttrStatus
p201
I102759
sVStatues
p202
I0
stp203
Rp204
I1
bag34
(g38
g39
(dp205
VUserName
p206
V@b7a0ee9183417bfdc247934eaa8742f858e2e7fcc8ed9d41a42cfc7269434c0a
p207
sVCity
p208
V\u5b5d\u611f
p209
sVSnsFlag
p210
I1
sVDisplayName
p211
g52
sVUniFriend
p212
I0
sVMemberCount
p213
I0
sVOwnerUin
p214
I0
sVMemberList
p215
g50
sVAlias
p216
g52
sVPYQuanPin
p217
Vliumihu
p218
sVSignature
p219
V\u144b\u1d49\u144a\u144a\u1d52
p220
sVRemarkPYInitial
p221
VA
p222
sVContactFlag
p223
I3
sVUin
p224
I0
sVNickName
p225
V\u67f3\u54aa\u547c
p226
sVAppAccountFlag
p227
I0
sVVerifyFlag
p228
I0
sVRemarkPYQuanPin
p229
Va
p230
sVHeadImgUrl
p231
V/cgi-bin/mmwebwx-bin/webwxgeticon?seq=673559092&username=@b7a0ee9183417bfdc247934eaa8742f858e2e7fcc8ed9d41a42cfc7269434c0a&skey=@crypt_1196b7ca_75987b9c5ee6de072a03bdf8df0976ed
p232
sVKeyWord
p233
g52
sVProvince
p234
V\u6e56\u5317
p235
sVPYInitial
p236
VLMH
p237
sVRemarkName
p238
g230
sVIsOwner
p239
I0
sVSex
p240
I2
sVStarFriend
p241
I0
sVHideInputBarFlag
p242
I0
sVChatRoomId
p243
I0
sVEncryChatRoomId
p244
g52
sVAttrStatus
p245
I110693
sVStatues
p246
I0
stp247
Rp248
I1
bag34
(g38
g39
(dp249
VUserName
p250
V@99909961f8b3304259cca8beb5da2362c3cf145f68c43846df47a4e8283f853d
p251
sVCity
p252
V\u6210\u90fd
p253
sVSnsFlag
p254
I1
sVDisplayName
p255
g52
sVUniFriend
p256
I0
sVMemberCount
p257
I0
sVOwnerUin
p258
I0
sVMemberList
p259
g50
sVAlias
p260
g52
sVPYQuanPin
p261
Vasusan?
p262
sVSignature
p263
V\u5728\u6b63\u786e\u7684\u65f6\u95f4\u505a\u5bf9\u7684\u4e8b\U0001f344
p264
sVRemarkPYInitial
p265
g52
sVContactFlag
p266
I1
sVUin
p267
I0
sVNickName
p268
V\u963f\u82cf\u4e09\U0001f344
p269
sVAppAccountFlag
p270
I0
sVVerifyFlag
p271
I0
sVRemarkPYQuanPin
p272
g52
sVHeadImgUrl
p273
V/cgi-bin/mmwebwx-bin/webwxgeticon?seq=650404115&username=@99909961f8b3304259cca8beb5da2362c3cf145f68c43846df47a4e8283f853d&skey=@crypt_1196b7ca_75987b9c5ee6de072a03bdf8df0976ed
p274
sVKeyWord
p275
g52
sVProvince
p276
V\u56db\u5ddd
p277
sVPYInitial
p278
VASS?
p279
sVRemarkName
p280
g52
sVIsOwner
p281
I0
sVSex
p282
I2
sVStarFriend
p283
I0
sVHideInputBarFlag
p284
I0
sVChatRoomId
p285
I0
sVEncryChatRoomId
p286
g52
sVAttrStatus
p287
I234241
sVStatues
p288
I0
stp289
Rp290
I1
bag34
(g38
g39
(dp291
VUserName
p292
V@1b36a3b13a65ad5054c1cbe696d744afe00c890c15b0def5149f1f1cb8041d3b
p293
sVCity
p294
g52
sVSnsFlag
p295
I1
sVDisplayName
p296
g52
sVUniFriend
p297
I0
sVMemberCount
p298
I0
sVOwnerUin
p299
I0
sVMemberList
p300
g50
sVAlias
p301
g52
sVPYQuanPin
p302
Vtaiyangyu
p303
sVSignature
p304
g52
sVRemarkPYInitial
p305
VXJM
p306
sVContactFlag
p307
I1
sVUin
p308
I0
sVNickName
p309
V\u592a\u9633\u96e8
p310
sVAppAccountFlag
p311
I0
sVVerifyFlag
p312
I0
sVRemarkPYQuanPin
p313
Vxiaojiuma
p314
sVHeadImgUrl
p315
V/cgi-bin/mmwebwx-bin/webwxgeticon?seq=650406005&username=@1b36a3b13a65ad5054c1cbe696d744afe00c890c15b0def5149f1f1cb8041d3b&skey=@crypt_1196b7ca_75987b9c5ee6de072a03bdf8df0976ed
p316
sVKeyWord
p317
g52
sVProvince
p318
g52
sVPYInitial
p319
VTYY
p320
sVRemarkName
p321
V\u5c0f\u8205\u5988
p322
sVIsOwner
p323
I0
sVSex
p324
I0
sVStarFriend
p325
I0
sVHideInputBarFlag
p326
I0
sVChatRoomId
p327
I0
sVEncryChatRoomId
p328
g52
sVAttrStatus
p329
I235557
sVStatues
p330
I0
stp331
Rp332
I1
bag34
(g38
g39
(dp333
VUserName
p334
V@ee5057e69df26b71718fc6787db019d733156321dd892da2407e55d83d267770
p335
sVCity
p336
V\u6b66\u6c49
p337
sVSnsFlag
p338
I1
sVDisplayName
p339
g52
sVUniFriend
p340
I0
sVMemberCount
p341
I0
sVOwnerUin
p342
I0
sVMemberList
p343
g50
sVAlias
p344
g52
sVPYQuanPin
p345
Vyingfei
p346
sVSignature
p347
V\u964c\u4e0a\u82b1\u5f00 \u7f13\u7f13\u6536
p348
sVRemarkPYInitial
p349
VHLM
p350
sVContactFlag
p351
I1
sVUin
p352
I0
sVNickName
p353
V\u5f71  \u98de\u3001
p354
sVAppAccountFlag
p355
I0
sVVerifyFlag
p356
I0
sVRemarkPYQuanPin
p357
Vheliming
p358
sVHeadImgUrl
p359
V/cgi-bin/mmwebwx-bin/webwxgeticon?seq=652086292&username=@ee5057e69df26b71718fc6787db019d733156321dd892da2407e55d83d267770&skey=@crypt_1196b7ca_75987b9c5ee6de072a03bdf8df0976ed
p360
sVKeyWord
p361
g52
sVProvince
p362
V\u6e56\u5317
p363
sVPYInitial
p364
VYF
p365
sVRemarkName
p366
V\u4f55\u9ece\u660e
p367
sVIsOwner
p368
I0
sVSex
p369
I1
sVStarFriend
p370
I0
sVHideInputBarFlag
p371
I0
sVChatRoomId
p372
I0
sVEncryChatRoomId
p373
g52
sVAttrStatus
p374
I102501
sVStatues
p375
I0
stp376
Rp377
I1
bag34
(g38
g39
(dp378
VUserName
p379
V@f9ce42d67e74961c702852df4a5c28ecda8685481030b2e5cee201d5af6351f0
p380
sVCity
p381
g52
sVSnsFlag
p382
I1
sVDisplayName
p383
g52
sVUniFriend
p384
I0
sVMemberCount
p385
I0
sVOwnerUin
p386
I0
sVMemberList
p387
g50
sVAlias
p388
g52
sVPYQuanPin
p389
V15327083650jie
p390
sVSignature
p391
g52
sVRemarkPYInitial
p392
VYM
p393
sVContactFlag
p394
I3
sVUin
p395
I0
sVNickName
p396
V15327083650\u5a55
p397
sVAppAccountFlag
p398
I0
sVVerifyFlag
p399
I0
sVRemarkPYQuanPin
p400
Vyima
p401
sVHeadImgUrl
p402
V/cgi-bin/mmwebwx-bin/webwxgeticon?seq=661098491&username=@f9ce42d67e74961c702852df4a5c28ecda8685481030b2e5cee201d5af6351f0&skey=@crypt_1196b7ca_75987b9c5ee6de072a03bdf8df0976ed
p403
sVKeyWord
p404
g52
sVProvince
p405
g52
sVPYInitial
p406
V15327083650J
p407
sVRemarkName
p408
V\u59e8\u5988
p409
sVIsOwner
p410
I0
sVSex
p411
I0
sVStarFriend
p412
I0
sVHideInputBarFlag
p413
I0
sVChatRoomId
p414
I0
sVEncryChatRoomId
p415
g52
sVAttrStatus
p416
I4129
sVStatues
p417
I0
stp418
Rp419
I1
bag34
(g38
g39
(dp420
VUserName
p421
V@5e3d0a9a064de2c9df158ad03051d26509f90dcf299c3c438e7797e077867ed9
p422
sVCity
p423
g52
sVSnsFlag
p424
I1
sVDisplayName
p425
g52
sVUniFriend
p426
I0
sVMemberCount
p427
I0
sVOwnerUin
p428
I0
sVMemberList
p429
g50
sVAlias
p430
g52
sVPYQuanPin
p431
Venenen
p432
sVSignature
p433
g52
sVRemarkPYInitial
p434
VML
p435
sVContactFlag
p436
I1
sVUin
p437
I0
sVNickName
p438
V\u55ef\u55ef\uff0c\u55ef\uff1f
p439
sVAppAccountFlag
p440
I0
sVVerifyFlag
p441
I0
sVRemarkPYQuanPin
p442
Vminglang
p443
sVHeadImgUrl
p444
V/cgi-bin/mmwebwx-bin/webwxgeticon?seq=655578060&username=@5e3d0a9a064de2c9df158ad03051d26509f90dcf299c3c438e7797e077867ed9&skey=@crypt_1196b7ca_75987b9c5ee6de072a03bdf8df0976ed
p445
sVKeyWord
p446
g52
sVProvince
p447
g52
sVPYInitial
p448
VEEE
p449
sVRemarkName
p450
V\u660e\u6717
p451
sVIsOwner
p452
I0
sVSex
p453
I1
sVStarFriend
p454
I0
sVHideInputBarFlag
p455
I0
sVChatRoomId
p456
I0
sVEncryChatRoomId
p457
g52
sVAttrStatus
p458
I16879653
sVStatues
p459
I0
stp460
Rp461
I1
bag34
(g38
g39
(dp462
VUserName
p463
V@8ed75912cffeeac12c4ca7abefaea7298cfd55fe931fa0cac844bf73c9b47b7c
p464
sVCity
p465
V\u5b5d\u611f
p466
sVSnsFlag
p467
I0
sVDisplayName
p468
g52
sVUniFriend
p469
I0
sVMemberCount
p470
I0
sVOwnerUin
p471
I0
sVMemberList
p472
g50
sVAlias
p473
g52
sVPYQuanPin
p474
Vxianbeixiaoha
p475
sVSignature
p476
g52
sVRemarkPYInitial
p477
VFD
p478
sVContactFlag
p479
I3
sVUin
p480
I0
sVNickName
p481
V\u4ed9\u8d1d\u5c0f\u867e
p482
sVAppAccountFlag
p483
I0
sVVerifyFlag
p484
I0
sVRemarkPYQuanPin
p485
Vfangdi
p486
sVHeadImgUrl
p487
V/cgi-bin/mmwebwx-bin/webwxgeticon?seq=661102941&username=@8ed75912cffeeac12c4ca7abefaea7298cfd55fe931fa0cac844bf73c9b47b7c&skey=@crypt_1196b7ca_75987b9c5ee6de072a03bdf8df0976ed
p488
sVKeyWord
p489
g52
sVProvince
p490
V\u6e56\u5317
p491
sVPYInitial
p492
VXBXH
p493
sVRemarkName
p494
V\u65b9\u5e1d
p495
sVIsOwner
p496
I0
sVSex
p497
I1
sVStarFriend
p498
I0
sVHideInputBarFlag
p499
I0
sVChatRoomId
p500
I0
sVEncryChatRoomId
p501
g52
sVAttrStatus
p502
I4133
sVStatues
p503
I0
stp504
Rp505
I1
bag34
(g38
g39
(dp506
VUserName
p507
V@d0aefdb9a7f5dfe69ef92ff4cb996f0063315614db9562a6c298bc0d467cc6fd
p508
sVCity
p509
V\u6b66\u6c49
p510
sVSnsFlag
p511
I1
sVDisplayName
p512
g52
sVUniFriend
p513
I0
sVMemberCount
p514
I0
sVOwnerUin
p515
I0
sVMemberList
p516
g50
sVAlias
p517
g52
sVPYQuanPin
p518
Vfengjuzhudejiedao
p519
sVSignature
p520
V\u98ce
p521
sVRemarkPYInitial
p522
VLR
p523
sVContactFlag
p524
I1
sVUin
p525
I0
sVNickName
p526
V\u98ce\u5c45\u4f4f\u7684\u8857\u9053
p527
sVAppAccountFlag
p528
I0
sVVerifyFlag
p529
I0
sVRemarkPYQuanPin
p530
Vlurun
p531
sVHeadImgUrl
p532
V/cgi-bin/mmwebwx-bin/webwxgeticon?seq=661093887&username=@d0aefdb9a7f5dfe69ef92ff4cb996f0063315614db9562a6c298bc0d467cc6fd&skey=@crypt_1196b7ca_75987b9c5ee6de072a03bdf8df0976ed
p533
sVKeyWord
p534
g52
sVProvince
p535
V\u6e56\u5317
p536
sVPYInitial
p537
VFJZDJD
p538
sVRemarkName
p539
V\u5362\u6da6
p540
sVIsOwner
p541
I0
sVSex
p542
I1
sVStarFriend
p543
I0
sVHideInputBarFlag
p544
I0
sVChatRoomId
p545
I0
sVEncryChatRoomId
p546
g52
sVAttrStatus
p547
I4133
sVStatues
p548
I0
stp549
Rp550
I1
bag34
(g38
g39
(dp551
VUserName
p552
V@a656b6b7062c853f4964f98608f716989b4307d8f73825645f302ea85c1ebda5
p553
sVCity
p554
V\u5b5d\u611f
p555
sVSnsFlag
p556
I16
sVDisplayName
p557
g52
sVUniFriend
p558
I0
sVMemberCount
p559
I0
sVOwnerUin
p560
I0
sVMemberList
p561
g50
sVAlias
p562
g52
sVPYQuanPin
p563
VD
p564
sVSignature
p565
V\u4e00\u76f4\u4e00\u76f4\uff01
p566
sVRemarkPYInitial
p567
VFD
p568
sVContactFlag
p569
I1
sVUin
p570
I0
sVNickName
p571
VD\u309b
p572
sVAppAccountFlag
p573
I0
sVVerifyFlag
p574
I0
sVRemarkPYQuanPin
p575
Vfangdi
p576
sVHeadImgUrl
p577
V/cgi-bin/mmwebwx-bin/webwxgeticon?seq=661103602&username=@a656b6b7062c853f4964f98608f716989b4307d8f73825645f302ea85c1ebda5&skey=@crypt_1196b7ca_75987b9c5ee6de072a03bdf8df0976ed
p578
sVKeyWord
p579
g52
sVProvince
p580
V\u6e56\u5317
p581
sVPYInitial
p582
g564
sVRemarkName
p583
V\u65b9\u5e1d
p584
sVIsOwner
p585
I0
sVSex
p586
I1
sVStarFriend
p587
I0
sVHideInputBarFlag
p588
I0
sVChatRoomId
p589
I0
sVEncryChatRoomId
p590
g52
sVAttrStatus
p591
I12385
sVStatues
p592
I0
stp593
Rp594
I1
bag34
(g38
g39
(dp595
VUserName
p596
V@0f25233fa85c75f72c03f044aaac798a8dbb34d2ffa124a188f23454850c0830
p597
sVCity
p598
g52
sVSnsFlag
p599
I1
sVDisplayName
p600
g52
sVUniFriend
p601
I0
sVMemberCount
p602
I0
sVOwnerUin
p603
I0
sVMemberList
p604
g50
sVAlias
p605
g52
sVPYQuanPin
p606
Vaikanshudexiaoxiazi
p607
sVSignature
p608
g52
sVRemarkPYInitial
p609
VQWY
p610
sVContactFlag
p611
I1
sVUin
p612
I0
sVNickName
p613
V\u7231\u770b\u4e66\u7684\u5c0f\u778e\u5b50
p614
sVAppAccountFlag
p615
I0
sVVerifyFlag
p616
I0
sVRemarkPYQuanPin
p617
Vqiuwanyue
p618
sVHeadImgUrl
p619
V/cgi-bin/mmwebwx-bin/webwxgeticon?seq=661108707&username=@0f25233fa85c75f72c03f044aaac798a8dbb34d2ffa124a188f23454850c0830&skey=@crypt_1196b7ca_75987b9c5ee6de072a03bdf8df0976ed
p620
sVKeyWord
p621
g52
sVProvince
p622
g52
sVPYInitial
p623
VAKSDXXZ
p624
sVRemarkName
p625
V\u90b1\u5a49\u6708
p626
sVIsOwner
p627
I0
sVSex
p628
I0
sVStarFriend
p629
I0
sVHideInputBarFlag
p630
I0
sVChatRoomId
p631
I0
sVEncryChatRoomId
p632
g52
sVAttrStatus
p633
I102437
sVStatues
p634
I0
stp635
Rp636
I1
bag34
(g38
g39
(dp637
VUserName
p638
V@fccd12c1bdbca183443d323c6e20841a288abd56768e323a563b9b76668834a9
p639
sVCity
p640
V\u6b66\u6c49
p641
sVSnsFlag
p642
I1
sVDisplayName
p643
g52
sVUniFriend
p644
I0
sVMemberCount
p645
I0
sVOwnerUin
p646
I0
sVMemberList
p647
g50
sVAlias
p648
g52
sVPYQuanPin
p649
Vbuxinxie
p650
sVSignature
p651
V\u6211\u5728\u5927\u522b\u5c71\u6df1\u5904
p652
sVRemarkPYInitial
p653
VXGY
p654
sVContactFlag
p655
I3
sVUin
p656
I0
sVNickName
p657
V\u4e0d\u4fe1\u90aa
p658
sVAppAccountFlag
p659
I0
sVVerifyFlag
p660
I0
sVRemarkPYQuanPin
p661
Vxugaoyuan
p662
sVHeadImgUrl
p663
V/cgi-bin/mmwebwx-bin/webwxgeticon?seq=655578043&username=@fccd12c1bdbca183443d323c6e20841a288abd56768e323a563b9b76668834a9&skey=@crypt_1196b7ca_75987b9c5ee6de072a03bdf8df0976ed
p664
sVKeyWord
p665
g52
sVProvince
p666
V\u6e56\u5317
p667
sVPYInitial
p668
VBXX
p669
sVRemarkName
p670
V\u5f90\u9ad8\u539f
p671
sVIsOwner
p672
I0
sVSex
p673
I1
sVStarFriend
p674
I0
sVHideInputBarFlag
p675
I0
sVChatRoomId
p676
I0
sVEncryChatRoomId
p677
g52
sVAttrStatus
p678
I4197
sVStatues
p679
I0
stp680
Rp681
I1
bag34
(g38
g39
(dp682
VUserName
p683
V@6bd614d48eee4dc03d212cc3481b170fdf9e23e626a824a6a6a8f1572077b5db
p684
sVCity
p685
V\u5b5d\u611f
p686
sVSnsFlag
p687
I1
sVDisplayName
p688
g52
sVUniFriend
p689
I0
sVMemberCount
p690
I0
sVOwnerUin
p691
I0
sVMemberList
p692
g50
sVAlias
p693
g52
sVPYQuanPin
p694
Vwutuo
p695
sVSignature
p696
V\u6b20\u7684\u8d26\u8981\u597d\u597d\u8fd8\u4e0a
p697
sVRemarkPYInitial
p698
g52
sVContactFlag
p699
I1
sVUin
p700
I0
sVNickName
p701
V\u5434\u5768
p702
sVAppAccountFlag
p703
I0
sVVerifyFlag
p704
I0
sVRemarkPYQuanPin
p705
g52
sVHeadImgUrl
p706
V/cgi-bin/mmwebwx-bin/webwxgeticon?seq=661110863&username=@6bd614d48eee4dc03d212cc3481b170fdf9e23e626a824a6a6a8f1572077b5db&skey=@crypt_1196b7ca_75987b9c5ee6de072a03bdf8df0976ed
p707
sVKeyWord
p708
g52
sVProvince
p709
V\u6e56\u5317
p710
sVPYInitial
p711
VWT
p712
sVRemarkName
p713
g52
sVIsOwner
p714
I0
sVSex
p715
I1
sVStarFriend
p716
I0
sVHideInputBarFlag
p717
I0
sVChatRoomId
p718
I0
sVEncryChatRoomId
p719
g52
sVAttrStatus
p720
I102437
sVStatues
p721
I0
stp722
Rp723
I1
bag34
(g38
g39
(dp724
VUserName
p725
V@71f465be81bd5cdf883c2140bad4d1c7d3b0291df4a0c03a81e31631f1b6820c
p726
sVCity
p727
g52
sVSnsFlag
p728
I1
sVDisplayName
p729
g52
sVUniFriend
p730
I0
sVMemberCount
p731
I0
sVOwnerUin
p732
I0
sVMemberList
p733
g50
sVAlias
p734
g52
sVPYQuanPin
p735
Vspanclassemojiemoji1f412spanmaggie
p736
sVSignature
p737
g52
sVRemarkPYInitial
p738
VWRF
p739
sVContactFlag
p740
I3
sVUin
p741
I0
sVNickName
p742
V\U0001f412maggie
p743
sVAppAccountFlag
p744
I0
sVVerifyFlag
p745
I0
sVRemarkPYQuanPin
p746
Vwangruifang
p747
sVHeadImgUrl
p748
V/cgi-bin/mmwebwx-bin/webwxgeticon?seq=661113990&username=@71f465be81bd5cdf883c2140bad4d1c7d3b0291df4a0c03a81e31631f1b6820c&skey=@crypt_1196b7ca_75987b9c5ee6de072a03bdf8df0976ed
p749
sVKeyWord
p750
g52
sVProvince
p751
g52
sVPYInitial
p752
VSPANCLASSEMOJIEMOJI1F412SPANMAGGIE
p753
sVRemarkName
p754
V\u738b\u745e\u82b3
p755
sVIsOwner
p756
I0
sVSex
p757
I2
sVStarFriend
p758
I0
sVHideInputBarFlag
p759
I0
sVChatRoomId
p760
I0
sVEncryChatRoomId
p761
g52
sVAttrStatus
p762
I137509
sVStatues
p763
I0
stp764
Rp765
I1
bag34
(g38
g39
(dp766
VUserName
p767
V@3bd4454c7ce4818fcef2c7fee87e40c416d381137272048509062b3f4dd22b23
p768
sVCity
p769
g52
sVSnsFlag
p770
I0
sVDisplayName
p771
g52
sVUniFriend
p772
I0
sVMemberCount
p773
I0
sVOwnerUin
p774
I0
sVMemberList
p775
g50
sVAlias
p776
g52
sVPYQuanPin
p777
Vmeijinguo
p778
sVSignature
p779
V\u4e09\u4eba\u884c\uff0c\u5fc5\u6709\u6211\u5e08\uff0c\u62e9\u5584\u800c\u4ece\uff0c\u4e0d\u5584\u800c\u6539
p780
sVRemarkPYInitial
p781
VMS
p782
sVContactFlag
p783
I3
sVUin
p784
I0
sVNickName
p785
V\u6885\u91d1\u56fd
p786
sVAppAccountFlag
p787
I0
sVVerifyFlag
p788
I0
sVRemarkPYQuanPin
p789
Vmeishu
p790
sVHeadImgUrl
p791
V/cgi-bin/mmwebwx-bin/webwxgeticon?seq=671057188&username=@3bd4454c7ce4818fcef2c7fee87e40c416d381137272048509062b3f4dd22b23&skey=@crypt_1196b7ca_75987b9c5ee6de072a03bdf8df0976ed
p792
sVKeyWord
p793
g52
sVProvince
p794
g52
sVPYInitial
p795
VMJG
p796
sVRemarkName
p797
V\u6885\u53d4
p798
sVIsOwner
p799
I0
sVSex
p800
I0
sVStarFriend
p801
I0
sVHideInputBarFlag
p802
I0
sVChatRoomId
p803
I0
sVEncryChatRoomId
p804
g52
sVAttrStatus
p805
I135205
sVStatues
p806
I0
stp807
Rp808
I1
bag34
(g38
g39
(dp809
VUserName
p810
V@2c27771c1ff445e35ec34ee056f235cd
p811
sVCity
p812
V\u671d\u9633
p813
sVSnsFlag
p814
I49
sVDisplayName
p815
g52
sVUniFriend
p816
I0
sVMemberCount
p817
I0
sVOwnerUin
p818
I0
sVMemberList
p819
g50
sVAlias
p820
g52
sVPYQuanPin
p821
Vspanclassemojiemoji1f48bspanqianqian?spanclassemojiemoji1f378span
p822
sVSignature
p823
V\u6211\u662f\u4e00\u4e2a\u5e78\u798f\u7684\u4eba\uff0c\u7236\u6bcd\u8eab\u4f53\u5065\u5eb7\uff0c\u6709\u5f1f\u6709\u59b9\uff0c\u8fd8\u6709\u7231\u6211\u548c\u6211\u7231\u7684\u4eba
p824
sVRemarkPYInitial
p825
VBIGGERTHANBIGGER
p826
sVContactFlag
p827
I3
sVUin
p828
I0
sVNickName
p829
V\U0001f48b\u5029\u5029\U0001f36b\U0001f378
p830
sVAppAccountFlag
p831
I0
sVVerifyFlag
p832
I0
sVRemarkPYQuanPin
p833
Vbiggerthanbigger
p834
sVHeadImgUrl
p835
V/cgi-bin/mmwebwx-bin/webwxgeticon?seq=661097841&username=@2c27771c1ff445e35ec34ee056f235cd&skey=@crypt_1196b7ca_75987b9c5ee6de072a03bdf8df0976ed
p836
sVKeyWord
p837
Vqia
p838
sVProvince
p839
V\u5317\u4eac
p840
sVPYInitial
p841
VSPANCLASSEMOJIEMOJI1F48BSPANQQ?SPANCLASSEMOJIEMOJI1F378SPAN
p842
sVRemarkName
p843
Vbigger than bigger
p844
sVIsOwner
p845
I0
sVSex
p846
I2
sVStarFriend
p847
I0
sVHideInputBarFlag
p848
I0
sVChatRoomId
p849
I0
sVEncryChatRoomId
p850
g52
sVAttrStatus
p851
I2147589157
sVStatues
p852
I0
stp853
Rp854
I1
bag34
(g38
g39
(dp855
VUserName
p856
V@6f99174f34ef6da9f5c106357b31f58201144d223f6f631cbc20b1d6398fb42f
p857
sVCity
p858
V\u5b5d\u611f
p859
sVSnsFlag
p860
I1
sVDisplayName
p861
g52
sVUniFriend
p862
I0
sVMemberCount
p863
I0
sVOwnerUin
p864
I0
sVMemberList
p865
g50
sVAlias
p866
g52
sVPYQuanPin
p867
Vdengzhiyan
p868
sVSignature
p869
g52
sVRemarkPYInitial
p870
g52
sVContactFlag
p871
I1
sVUin
p872
I0
sVNickName
p873
V\u9093\u5fd7\u7131
p874
sVAppAccountFlag
p875
I0
sVVerifyFlag
p876
I0
sVRemarkPYQuanPin
p877
g52
sVHeadImgUrl
p878
V/cgi-bin/mmwebwx-bin/webwxgeticon?seq=661110810&username=@6f99174f34ef6da9f5c106357b31f58201144d223f6f631cbc20b1d6398fb42f&skey=@crypt_1196b7ca_75987b9c5ee6de072a03bdf8df0976ed
p879
sVKeyWord
p880
g52
sVProvince
p881
V\u6e56\u5317
p882
sVPYInitial
p883
VDZY
p884
sVRemarkName
p885
g52
sVIsOwner
p886
I0
sVSex
p887
I1
sVStarFriend
p888
I0
sVHideInputBarFlag
p889
I0
sVChatRoomId
p890
I0
sVEncryChatRoomId
p891
g52
sVAttrStatus
p892
I4197
sVStatues
p893
I0
stp894
Rp895
I1
bag34
(g38
g39
(dp896
VUserName
p897
V@73425413c89962984dbd9881b7f619966519e8b6a81cdee06dfc4b9e44af537c
p898
sVCity
p899
g52
sVSnsFlag
p900
I1
sVDisplayName
p901
g52
sVUniFriend
p902
I0
sVMemberCount
p903
I0
sVOwnerUin
p904
I0
sVMemberList
p905
g50
sVAlias
p906
g52
sVPYQuanPin
p907
Vkuaikuaiyueyue
p908
sVSignature
p909
g52
sVRemarkPYInitial
p910
VYB
p911
sVContactFlag
p912
I3
sVUin
p913
I0
sVNickName
p914
V\u5feb\u5feb\u4e50\u4e50
p915
sVAppAccountFlag
p916
I0
sVVerifyFlag
p917
I0
sVRemarkPYQuanPin
p918
Vyibai
p919
sVHeadImgUrl
p920
V/cgi-bin/mmwebwx-bin/webwxgeticon?seq=655581702&username=@73425413c89962984dbd9881b7f619966519e8b6a81cdee06dfc4b9e44af537c&skey=@crypt_1196b7ca_75987b9c5ee6de072a03bdf8df0976ed
p921
sVKeyWord
p922
g52
sVProvince
p923
g52
sVPYInitial
p924
VKKYY
p925
sVRemarkName
p926
V\u59e8\u4f2f
p927
sVIsOwner
p928
I0
sVSex
p929
I0
sVStarFriend
p930
I0
sVHideInputBarFlag
p931
I0
sVChatRoomId
p932
I0
sVEncryChatRoomId
p933
g52
sVAttrStatus
p934
I4901
sVStatues
p935
I0
stp936
Rp937
I1
bag34
(g38
g39
(dp938
VUserName
p939
V@73d0cafab9226063e60ff93d626f372db06a50e36173e471b1807f77fc5ffbba
p940
sVCity
p941
g52
sVSnsFlag
p942
I1
sVDisplayName
p943
g52
sVUniFriend
p944
I0
sVMemberCount
p945
I0
sVOwnerUin
p946
I0
sVMemberList
p947
g50
sVAlias
p948
g52
sVPYQuanPin
p949
Vfujinghao
p950
sVSignature
p951
g52
sVRemarkPYInitial
p952
VB
p953
sVContactFlag
p954
I3
sVUin
p955
I0
sVNickName
p956
V\u4ed8\u656c\u6d69
p957
sVAppAccountFlag
p958
I0
sVVerifyFlag
p959
I0
sVRemarkPYQuanPin
p960
Vba
p961
sVHeadImgUrl
p962
V/cgi-bin/mmwebwx-bin/webwxgeticon?seq=671054738&username=@73d0cafab9226063e60ff93d626f372db06a50e36173e471b1807f77fc5ffbba&skey=@crypt_1196b7ca_75987b9c5ee6de072a03bdf8df0976ed
p963
sVKeyWord
p964
g52
sVProvince
p965
g52
sVPYInitial
p966
VFJH
p967
sVRemarkName
p968
V\u7238
p969
sVIsOwner
p970
I0
sVSex
p971
I0
sVStarFriend
p972
I0
sVHideInputBarFlag
p973
I0
sVChatRoomId
p974
I0
sVEncryChatRoomId
p975
g52
sVAttrStatus
p976
I135205
sVStatues
p977
I0
stp978
Rp979
I1
bag34
(g38
g39
(dp980
VUserName
p981
V@c69c06f84359e8532f01ba561ffc87a2741f928f17967ed682ccdf4547715230
p982
sVCity
p983
V\u5b5d\u611f
p984
sVSnsFlag
p985
I1
sVDisplayName
p986
g52
sVUniFriend
p987
I0
sVMemberCount
p988
I0
sVOwnerUin
p989
I0
sVMemberList
p990
g50
sVAlias
p991
g52
sVPYQuanPin
p992
VYOU
p993
sVSignature
p994
g52
sVRemarkPYInitial
p995
VGZCW
p996
sVContactFlag
p997
I1
sVUin
p998
I0
sVNickName
p999
VYOU
p1000
sVAppAccountFlag
p1001
I0
sVVerifyFlag
p1002
I0
sVRemarkPYQuanPin
p1003
Vgaozhongchenwei
p1004
sVHeadImgUrl
p1005
V/cgi-bin/mmwebwx-bin/webwxgeticon?seq=671057590&username=@c69c06f84359e8532f01ba561ffc87a2741f928f17967ed682ccdf4547715230&skey=@crypt_1196b7ca_75987b9c5ee6de072a03bdf8df0976ed
p1006
sVKeyWord
p1007
g52
sVProvince
p1008
V\u6e56\u5317
p1009
sVPYInitial
p1010
VYOU
p1011
sVRemarkName
p1012
V\u9ad8\u4e2d\u9648\u4f1f
p1013
sVIsOwner
p1014
I0
sVSex
p1015
I1
sVStarFriend
p1016
I0
sVHideInputBarFlag
p1017
I0
sVChatRoomId
p1018
I0
sVEncryChatRoomId
p1019
g52
sVAttrStatus
p1020
I102501
sVStatues
p1021
I0
stp1022
Rp1023
I1
bag34
(g38
g39
(dp1024
VUserName
p1025
V@e4d7039531df46d874d60ac32c349c62235f3d2807430a03c87e047eaae05049
p1026
sVCity
p1027
V\u5b5d\u611f
p1028
sVSnsFlag
p1029
I1
sVDisplayName
p1030
g52
sVUniFriend
p1031
I0
sVMemberCount
p1032
I0
sVOwnerUin
p1033
I0
sVMemberList
p1034
g50
sVAlias
p1035
g52
sVPYQuanPin
p1036
Vlimiweilanshimishenlan
p1037
sVSignature
p1038
V\u4eba\u4f3c\u79cb\u9e3f\u6765\u6709\u4fe1\uff0c\u4e8b\u5982\u6625\u68a6\u4e86\u65e0\u75d5\u3002
p1039
sVRemarkPYInitial
p1040
VWJS
p1041
sVContactFlag
p1042
I1
sVUin
p1043
I0
sVNickName
p1044
V\u5398\u7c73\u851a\u84dd\u5341\u7c73\u6df1\u84dd
p1045
sVAppAccountFlag
p1046
I0
sVVerifyFlag
p1047
I0
sVRemarkPYQuanPin
p1048
Vwangjunsen
p1049
sVHeadImgUrl
p1050
V/cgi-bin/mmwebwx-bin/webwxgeticon?seq=661096737&username=@e4d7039531df46d874d60ac32c349c62235f3d2807430a03c87e047eaae05049&skey=@crypt_1196b7ca_75987b9c5ee6de072a03bdf8df0976ed
p1051
sVKeyWord
p1052
g52
sVProvince
p1053
V\u6e56\u5317
p1054
sVPYInitial
p1055
VLMWLSMSL
p1056
sVRemarkName
p1057
V\u738b\u4fca\u68ee
p1058
sVIsOwner
p1059
I0
sVSex
p1060
I1
sVStarFriend
p1061
I0
sVHideInputBarFlag
p1062
I0
sVChatRoomId
p1063
I0
sVEncryChatRoomId
p1064
g52
sVAttrStatus
p1065
I33658981
sVStatues
p1066
I0
stp1067
Rp1068
I1
bag34
(g38
g39
(dp1069
VUserName
p1070
V@b00131da95ebc64af6a8b7105f8f675d36029b5c175d30796b0d727ba8237576
p1071
sVCity
p1072
V\u5b5d\u611f
p1073
sVSnsFlag
p1074
I49
sVDisplayName
p1075
g52
sVUniFriend
p1076
I0
sVMemberCount
p1077
I0
sVOwnerUin
p1078
I0
sVMemberList
p1079
g50
sVAlias
p1080
g52
sVPYQuanPin
p1081
Vtongyan
p1082
sVSignature
p1083
V\u5b81\u9759\u81f4\u8fdc
p1084
sVRemarkPYInitial
p1085
g52
sVContactFlag
p1086
I65537
sVUin
p1087
I0
sVNickName
p1088
V\u7ae5\u989c
p1089
sVAppAccountFlag
p1090
I0
sVVerifyFlag
p1091
I0
sVRemarkPYQuanPin
p1092
g52
sVHeadImgUrl
p1093
V/cgi-bin/mmwebwx-bin/webwxgeticon?seq=671058165&username=@b00131da95ebc64af6a8b7105f8f675d36029b5c175d30796b0d727ba8237576&skey=@crypt_1196b7ca_75987b9c5ee6de072a03bdf8df0976ed
p1094
sVKeyWord
p1095
g52
sVProvince
p1096
V\u6e56\u5317
p1097
sVPYInitial
p1098
VTY
p1099
sVRemarkName
p1100
g52
sVIsOwner
p1101
I0
sVSex
p1102
I2
sVStarFriend
p1103
I0
sVHideInputBarFlag
p1104
I0
sVChatRoomId
p1105
I0
sVEncryChatRoomId
p1106
g52
sVAttrStatus
p1107
I2147584229
sVStatues
p1108
I0
stp1109
Rp1110
I1
bag34
(g38
g39
(dp1111
VUserName
p1112
V@579f9cc7256f6368c40ce29fe55c7f008c3ee1e91a541b52fc0b02544ffba37e
p1113
sVCity
p1114
V\u957f\u6c99
p1115
sVSnsFlag
p1116
I1
sVDisplayName
p1117
g52
sVUniFriend
p1118
I0
sVMemberCount
p1119
I0
sVOwnerUin
p1120
I0
sVMemberList
p1121
g50
sVAlias
p1122
g52
sVPYQuanPin
p1123
Vtongqing13142007979
p1124
sVSignature
p1125
g52
sVRemarkPYInitial
p1126
g52
sVContactFlag
p1127
I3
sVUin
p1128
I0
sVNickName
p1129
V\u540c\u5e8613142007979
p1130
sVAppAccountFlag
p1131
I0
sVVerifyFlag
p1132
I0
sVRemarkPYQuanPin
p1133
g52
sVHeadImgUrl
p1134
V/cgi-bin/mmwebwx-bin/webwxgeticon?seq=673555764&username=@579f9cc7256f6368c40ce29fe55c7f008c3ee1e91a541b52fc0b02544ffba37e&skey=@crypt_1196b7ca_75987b9c5ee6de072a03bdf8df0976ed
p1135
sVKeyWord
p1136
g52
sVProvince
p1137
V\u6e56\u5357
p1138
sVPYInitial
p1139
VTQ13142007979
p1140
sVRemarkName
p1141
g52
sVIsOwner
p1142
I0
sVSex
p1143
I1
sVStarFriend
p1144
I0
sVHideInputBarFlag
p1145
I0
sVChatRoomId
p1146
I0
sVEncryChatRoomId
p1147
g52
sVAttrStatus
p1148
I4133
sVStatues
p1149
I0
stp1150
Rp1151
I1
bag34
(g38
g39
(dp1152
VUserName
p1153
V@1c1e2d657b1fa7f2860cc90ee18ca27115fc6c0434693f51a53076c1cd27768b
p1154
sVCity
p1155
V\u5b5d\u611f
p1156
sVSnsFlag
p1157
I1
sVDisplayName
p1158
g52
sVUniFriend
p1159
I0
sVMemberCount
p1160
I0
sVOwnerUin
p1161
I0
sVMemberList
p1162
g50
sVAlias
p1163
g52
sVPYQuanPin
p1164
Vjiannijiusong
p1165
sVSignature
p1166
V\u7167\u4eae\u8fc7\u522b\u4eba\u624d\u77e5\u9053\u81ea\u5df1\u662f\u4ec0\u4e48\u6a21\u6837
p1167
sVRemarkPYInitial
p1168
VZZY
p1169
sVContactFlag
p1170
I1
sVUin
p1171
I0
sVNickName
p1172
V\u89c1\u4f60\u5c31\u6002
p1173
sVAppAccountFlag
p1174
I0
sVVerifyFlag
p1175
I0
sVRemarkPYQuanPin
p1176
Vzhouzhengyuan
p1177
sVHeadImgUrl
p1178
V/cgi-bin/mmwebwx-bin/webwxgeticon?seq=673556025&username=@1c1e2d657b1fa7f2860cc90ee18ca27115fc6c0434693f51a53076c1cd27768b&skey=@crypt_1196b7ca_75987b9c5ee6de072a03bdf8df0976ed
p1179
sVKeyWord
p1180
g52
sVProvince
p1181
V\u6e56\u5317
p1182
sVPYInitial
p1183
VJNJS
p1184
sVRemarkName
p1185
V\u5468\u6b63\u6e90
p1186
sVIsOwner
p1187
I0
sVSex
p1188
I1
sVStarFriend
p1189
I0
sVHideInputBarFlag
p1190
I0
sVChatRoomId
p1191
I0
sVEncryChatRoomId
p1192
g52
sVAttrStatus
p1193
I102501
sVStatues
p1194
I0
stp1195
Rp1196
I1
bag34
(g38
g39
(dp1197
VUserName
p1198
V@505944b8089a08828cc7692fa1ef124858f3f6c05f73cb5fcafbecdbaafc63c1
p1199
sVCity
p1200
V\u6df1\u5733
p1201
sVSnsFlag
p1202
I17
sVDisplayName
p1203
g52
sVUniFriend
p1204
I0
sVMemberCount
p1205
I0
sVOwnerUin
p1206
I0
sVMemberList
p1207
g50
sVAlias
p1208
g52
sVPYQuanPin
p1209
Vzhizi
p1210
sVSignature
p1211
V\u4eba\u751f\u5c31\u662f\u4e3a\u4e86\u7b11\u8d77\u6765\uff0c\u5176\u4ed6\u90fd\u662f\u7ec6\u679d\u672b\u53f6\u3002
p1212
sVRemarkPYInitial
p1213
VXHGG
p1214
sVContactFlag
p1215
I3
sVUin
p1216
I0
sVNickName
p1217
V\u6800\u5b50
p1218
sVAppAccountFlag
p1219
I0
sVVerifyFlag
p1220
I0
sVRemarkPYQuanPin
p1221
Vxiaohonggangan
p1222
sVHeadImgUrl
p1223
V/cgi-bin/mmwebwx-bin/webwxgeticon?seq=652088504&username=@505944b8089a08828cc7692fa1ef124858f3f6c05f73cb5fcafbecdbaafc63c1&skey=@crypt_1196b7ca_75987b9c5ee6de072a03bdf8df0976ed
p1224
sVKeyWord
p1225
g52
sVProvince
p1226
V\u5e7f\u4e1c
p1227
sVPYInitial
p1228
VZZ
p1229
sVRemarkName
p1230
V\u5c0f\u7ea2\u5e72\u5e72
p1231
sVIsOwner
p1232
I0
sVSex
p1233
I2
sVStarFriend
p1234
I0
sVHideInputBarFlag
p1235
I0
sVChatRoomId
p1236
I0
sVEncryChatRoomId
p1237
g52
sVAttrStatus
p1238
I235813
sVStatues
p1239
I0
stp1240
Rp1241
I1
bag34
(g38
g39
(dp1242
VUserName
p1243
V@b1e875d7eaa8d7d9544292d48a0674e20398bc9b42b36d695514182206598c70
p1244
sVCity
p1245
V\u6210\u90fd
p1246
sVSnsFlag
p1247
I49
sVDisplayName
p1248
g52
sVUniFriend
p1249
I0
sVMemberCount
p1250
I0
sVOwnerUin
p1251
I0
sVMemberList
p1252
g50
sVAlias
p1253
g52
sVPYQuanPin
p1254
VSilky
p1255
sVSignature
p1256
g52
sVRemarkPYInitial
p1257
g52
sVContactFlag
p1258
I1
sVUin
p1259
I0
sVNickName
p1260
VSilky
p1261
sVAppAccountFlag
p1262
I0
sVVerifyFlag
p1263
I0
sVRemarkPYQuanPin
p1264
g52
sVHeadImgUrl
p1265
V/cgi-bin/mmwebwx-bin/webwxgeticon?seq=673555416&username=@b1e875d7eaa8d7d9544292d48a0674e20398bc9b42b36d695514182206598c70&skey=@crypt_1196b7ca_75987b9c5ee6de072a03bdf8df0976ed
p1266
sVKeyWord
p1267
g52
sVProvince
p1268
V\u56db\u5ddd
p1269
sVPYInitial
p1270
VSILKY
p1271
sVRemarkName
p1272
g52
sVIsOwner
p1273
I0
sVSex
p1274
I2
sVStarFriend
p1275
I0
sVHideInputBarFlag
p1276
I0
sVChatRoomId
p1277
I0
sVEncryChatRoomId
p1278
g52
sVAttrStatus
p1279
I104485
sVStatues
p1280
I0
stp1281
Rp1282
I1
bag34
(g38
g39
(dp1283
VUserName
p1284
V@40d2d3ff4ea6da256b9290acbe021dd474783cab9123435cf099146bc305bda1
p1285
sVCity
p1286
V\u5e7f\u5dde
p1287
sVSnsFlag
p1288
I49
sVDisplayName
p1289
g52
sVUniFriend
p1290
I0
sVMemberCount
p1291
I0
sVOwnerUin
p1292
I0
sVMemberList
p1293
g50
sVAlias
p1294
g52
sVPYQuanPin
p1295
Vbeishangguangshenkunminghuichangyongpinzulin
p1296
sVSignature
p1297
g52
sVRemarkPYInitial
p1298
g52
sVContactFlag
p1299
I1
sVUin
p1300
I0
sVNickName
p1301
V\u5317\u4e0a\u5e7f\u6df1\u6606\u660e\u4f1a\u573a\u7528\u54c1\u79df\u8d41
p1302
sVAppAccountFlag
p1303
I0
sVVerifyFlag
p1304
I0
sVRemarkPYQuanPin
p1305
g52
sVHeadImgUrl
p1306
V/cgi-bin/mmwebwx-bin/webwxgeticon?seq=673557162&username=@40d2d3ff4ea6da256b9290acbe021dd474783cab9123435cf099146bc305bda1&skey=@crypt_1196b7ca_75987b9c5ee6de072a03bdf8df0976ed
p1307
sVKeyWord
p1308
g52
sVProvince
p1309
V\u5e7f\u4e1c
p1310
sVPYInitial
p1311
VBSGSKMHCYPZL
p1312
sVRemarkName
p1313
g52
sVIsOwner
p1314
I0
sVSex
p1315
I2
sVStarFriend
p1316
I0
sVHideInputBarFlag
p1317
I0
sVChatRoomId
p1318
I0
sVEncryChatRoomId
p1319
g52
sVAttrStatus
p1320
I102589
sVStatues
p1321
I0
stp1322
Rp1323
I1
bag34
(g38
g39
(dp1324
VUserName
p1325
V@bf329c2e27c17dcb1f9f81dc68fdfb8833e037fecaed2c5c8e31b9eed36d857e
p1326
sVCity
p1327
V\u6b66\u6c49
p1328
sVSnsFlag
p1329
I17
sVDisplayName
p1330
g52
sVUniFriend
p1331
I0
sVMemberCount
p1332
I0
sVOwnerUin
p1333
I0
sVMemberList
p1334
g50
sVAlias
p1335
g52
sVPYQuanPin
p1336
Vyunyousihaizuozhense630806821913
p1337
sVSignature
p1338
Vbiubiubiu
p1339
sVRemarkPYInitial
p1340
VZZ
p1341
sVContactFlag
p1342
I3
sVUin
p1343
I0
sVNickName
p1344
V\u4e91\u6e38\u56db\u6d77\u5de6\u73cdse630 806 821 913
p1345
sVAppAccountFlag
p1346
I0
sVVerifyFlag
p1347
I0
sVRemarkPYQuanPin
p1348
Vzuozhen
p1349
sVHeadImgUrl
p1350
V/cgi-bin/mmwebwx-bin/webwxgeticon?seq=661110394&username=@bf329c2e27c17dcb1f9f81dc68fdfb8833e037fecaed2c5c8e31b9eed36d857e&skey=@crypt_1196b7ca_75987b9c5ee6de072a03bdf8df0976ed
p1351
sVKeyWord
p1352
g52
sVProvince
p1353
V\u6e56\u5317
p1354
sVPYInitial
p1355
VYYSHZZSE630806821913
p1356
sVRemarkName
p1357
V\u5de6\u73cd
p1358
sVIsOwner
p1359
I0
sVSex
p1360
I2
sVStarFriend
p1361
I0
sVHideInputBarFlag
p1362
I0
sVChatRoomId
p1363
I0
sVEncryChatRoomId
p1364
g52
sVAttrStatus
p1365
I4285
sVStatues
p1366
I0
stp1367
Rp1368
I1
bag34
(g38
g39
(dp1369
VUserName
p1370
V@012279c98ae0f93499a9862f272e7999ce3eb5ab8bef9cf237ddff4dcf0ef9a6
p1371
sVCity
p1372
g52
sVSnsFlag
p1373
I1
sVDisplayName
p1374
g52
sVUniFriend
p1375
I0
sVMemberCount
p1376
I0
sVOwnerUin
p1377
I0
sVMemberList
p1378
g50
sVAlias
p1379
g52
sVPYQuanPin
p1380
VRobin
p1381
sVSignature
p1382
V\u2026\u2026
p1383
sVRemarkPYInitial
p1384
VZP
p1385
sVContactFlag
p1386
I259
sVUin
p1387
I0
sVNickName
p1388
VRobin\u03b6
p1389
sVAppAccountFlag
p1390
I0
sVVerifyFlag
p1391
I0
sVRemarkPYQuanPin
p1392
Vzhangpeng
p1393
sVHeadImgUrl
p1394
V/cgi-bin/mmwebwx-bin/webwxgeticon?seq=673557611&username=@012279c98ae0f93499a9862f272e7999ce3eb5ab8bef9cf237ddff4dcf0ef9a6&skey=@crypt_1196b7ca_75987b9c5ee6de072a03bdf8df0976ed
p1395
sVKeyWord
p1396
g52
sVProvince
p1397
VHamburg
p1398
sVPYInitial
p1399
VROBIN
p1400
sVRemarkName
p1401
V\u5f20\u9e4f
p1402
sVIsOwner
p1403
I0
sVSex
p1404
I1
sVStarFriend
p1405
I0
sVHideInputBarFlag
p1406
I0
sVChatRoomId
p1407
I0
sVEncryChatRoomId
p1408
g52
sVAttrStatus
p1409
I104549
sVStatues
p1410
I0
stp1411
Rp1412
I1
bag34
(g38
g39
(dp1413
VUserName
p1414
V@d1bc1e8d00794d131fd625d7548e70e865311099dcb57896db18d57a37b673d8
p1415
sVCity
p1416
V\u5b5d\u611f
p1417
sVSnsFlag
p1418
I1
sVDisplayName
p1419
g52
sVUniFriend
p1420
I0
sVMemberCount
p1421
I0
sVOwnerUin
p1422
I0
sVMemberList
p1423
g50
sVAlias
p1424
g52
sVPYQuanPin
p1425
Vfuxuezheng
p1426
sVSignature
p1427
g52
sVRemarkPYInitial
p1428
g52
sVContactFlag
p1429
I3
sVUin
p1430
I0
sVNickName
p1431
V\u4ed8\u5b66\u653f
p1432
sVAppAccountFlag
p1433
I0
sVVerifyFlag
p1434
I0
sVRemarkPYQuanPin
p1435
g52
sVHeadImgUrl
p1436
V/cgi-bin/mmwebwx-bin/webwxgeticon?seq=672194161&username=@d1bc1e8d00794d131fd625d7548e70e865311099dcb57896db18d57a37b673d8&skey=@crypt_1196b7ca_75987b9c5ee6de072a03bdf8df0976ed
p1437
sVKeyWord
p1438
g52
sVProvince
p1439
V\u6e56\u5317
p1440
sVPYInitial
p1441
VFXZ
p1442
sVRemarkName
p1443
g52
sVIsOwner
p1444
I0
sVSex
p1445
I1
sVStarFriend
p1446
I0
sVHideInputBarFlag
p1447
I0
sVChatRoomId
p1448
I0
sVEncryChatRoomId
p1449
g52
sVAttrStatus
p1450
I102405
sVStatues
p1451
I0
stp1452
Rp1453
I1
bag34
(g38
g39
(dp1454
VUserName
p1455
V@ddc4053f686f1998065caacc74487faa7125787d4734cf17a8030d27a7262efe
p1456
sVCity
p1457
V\u6df1\u5733
p1458
sVSnsFlag
p1459
I1
sVDisplayName
p1460
g52
sVUniFriend
p1461
I0
sVMemberCount
p1462
I0
sVOwnerUin
p1463
I0
sVMemberList
p1464
g50
sVAlias
p1465
g52
sVPYQuanPin
p1466
Vyifanfengshun
p1467
sVSignature
p1468
V\u4e0d\u82e6\u7684\u4eba\u751f\uff0c\u5c31\u4e0d\u662f\u5b8c\u7f8e\u7684\u4eba\u751f
p1469
sVRemarkPYInitial
p1470
VLYJ
p1471
sVContactFlag
p1472
I259
sVUin
p1473
I0
sVNickName
p1474
V\u4e00\u5e06\u98ce\u987a
p1475
sVAppAccountFlag
p1476
I0
sVVerifyFlag
p1477
I0
sVRemarkPYQuanPin
p1478
Vlanyingjie
p1479
sVHeadImgUrl
p1480
V/cgi-bin/mmwebwx-bin/webwxgeticon?seq=661099396&username=@ddc4053f686f1998065caacc74487faa7125787d4734cf17a8030d27a7262efe&skey=@crypt_1196b7ca_75987b9c5ee6de072a03bdf8df0976ed
p1481
sVKeyWord
p1482
g52
sVProvince
p1483
V\u5e7f\u4e1c
p1484
sVPYInitial
p1485
VYFFS
p1486
sVRemarkName
p1487
V\u5170\u82f1\u59d0
p1488
sVIsOwner
p1489
I0
sVSex
p1490
I2
sVStarFriend
p1491
I0
sVHideInputBarFlag
p1492
I0
sVChatRoomId
p1493
I0
sVEncryChatRoomId
p1494
g52
sVAttrStatus
p1495
I4133
sVStatues
p1496
I0
stp1497
Rp1498
I1
bag34
(g38
g39
(dp1499
VUserName
p1500
V@4f02cf56e9206014de970b54bcaa5230ee760833da00b5af45ffd7726cf5ff42
p1501
sVCity
p1502
V\u9ec4\u77f3
p1503
sVSnsFlag
p1504
I17
sVDisplayName
p1505
g52
sVUniFriend
p1506
I0
sVMemberCount
p1507
I0
sVOwnerUin
p1508
I0
sVMemberList
p1509
g50
sVAlias
p1510
g52
sVPYQuanPin
p1511
Vhuanghaijun
p1512
sVSignature
p1513
V\u6c5f\u897f
p1514
sVRemarkPYInitial
p1515
VHSJ
p1516
sVContactFlag
p1517
I65795
sVUin
p1518
I0
sVNickName
p1519
V\u9ec4\u6d77\u519b
p1520
sVAppAccountFlag
p1521
I0
sVVerifyFlag
p1522
I0
sVRemarkPYQuanPin
p1523
Vhuangshuji
p1524
sVHeadImgUrl
p1525
V/cgi-bin/mmwebwx-bin/webwxgeticon?seq=655580750&username=@4f02cf56e9206014de970b54bcaa5230ee760833da00b5af45ffd7726cf5ff42&skey=@crypt_1196b7ca_75987b9c5ee6de072a03bdf8df0976ed
p1526
sVKeyWord
p1527
g52
sVProvince
p1528
V\u6e56\u5317
p1529
sVPYInitial
p1530
VHHJ
p1531
sVRemarkName
p1532
V\u9ec4\u4e66\u8bb0
p1533
sVIsOwner
p1534
I0
sVSex
p1535
I1
sVStarFriend
p1536
I0
sVHideInputBarFlag
p1537
I0
sVChatRoomId
p1538
I0
sVEncryChatRoomId
p1539
g52
sVAttrStatus
p1540
I102589
sVStatues
p1541
I0
stp1542
Rp1543
I1
bag34
(g38
g39
(dp1544
VUserName
p1545
V@5c2dc135c2865f408f853314ea7647d35a796672c30581f135cce64f80bfee0b
p1546
sVCity
p1547
V\u6b66\u6c49
p1548
sVSnsFlag
p1549
I0
sVDisplayName
p1550
g52
sVUniFriend
p1551
I0
sVMemberCount
p1552
I0
sVOwnerUin
p1553
I0
sVMemberList
p1554
g50
sVAlias
p1555
g52
sVPYQuanPin
p1556
Vwenxuan
p1557
sVSignature
p1558
VWhat is mind?-No matter. What is matter?-Never mind.
p1559
sVRemarkPYInitial
p1560
VLH
p1561
sVContactFlag
p1562
I65795
sVUin
p1563
I0
sVNickName
p1564
V\u6587\u5ba3
p1565
sVAppAccountFlag
p1566
I0
sVVerifyFlag
p1567
I0
sVRemarkPYQuanPin
p1568
Vlihan
p1569
sVHeadImgUrl
p1570
V/cgi-bin/mmwebwx-bin/webwxgeticon?seq=661094730&username=@5c2dc135c2865f408f853314ea7647d35a796672c30581f135cce64f80bfee0b&skey=@crypt_1196b7ca_75987b9c5ee6de072a03bdf8df0976ed
p1571
sVKeyWord
p1572
g52
sVProvince
p1573
V\u6e56\u5317
p1574
sVPYInitial
p1575
VWX
p1576
sVRemarkName
p1577
V\u674e\u6db5
p1578
sVIsOwner
p1579
I0
sVSex
p1580
I1
sVStarFriend
p1581
I0
sVHideInputBarFlag
p1582
I0
sVChatRoomId
p1583
I0
sVEncryChatRoomId
p1584
g52
sVAttrStatus
p1585
I102501
sVStatues
p1586
I0
stp1587
Rp1588
I1
bag34
(g38
g39
(dp1589
VUserName
p1590
V@881cfbb2c3818b6b02de04f5aeac7be54c0c58b3b5e85e2757a79251c2f9564e
p1591
sVCity
p1592
V\u9ec4\u77f3
p1593
sVSnsFlag
p1594
I17
sVDisplayName
p1595
g52
sVUniFriend
p1596
I0
sVMemberCount
p1597
I0
sVOwnerUin
p1598
I0
sVMemberList
p1599
g50
sVAlias
p1600
g52
sVPYQuanPin
p1601
Vmaiguniangdexiaohuochai
p1602
sVSignature
p1603
V\u9752\u6625\u6211\u4eec\u4ece\u672a\u8ff7\u832b\u3002
p1604
sVRemarkPYInitial
p1605
VCW
p1606
sVContactFlag
p1607
I259
sVUin
p1608
I0
sVNickName
p1609
V\u5356\u59d1\u5a18\u7684\u5c0f\u706b\u67f4
p1610
sVAppAccountFlag
p1611
I0
sVVerifyFlag
p1612
I0
sVRemarkPYQuanPin
p1613
Vchenwei
p1614
sVHeadImgUrl
p1615
V/cgi-bin/mmwebwx-bin/webwxgeticon?seq=661105045&username=@881cfbb2c3818b6b02de04f5aeac7be54c0c58b3b5e85e2757a79251c2f9564e&skey=@crypt_1196b7ca_75987b9c5ee6de072a03bdf8df0976ed
p1616
sVKeyWord
p1617
g52
sVProvince
p1618
V\u6e56\u5317
p1619
sVPYInitial
p1620
VMGNDXHC
p1621
sVRemarkName
p1622
V\u9648\u4f1f
p1623
sVIsOwner
p1624
I0
sVSex
p1625
I1
sVStarFriend
p1626
I0
sVHideInputBarFlag
p1627
I0
sVChatRoomId
p1628
I0
sVEncryChatRoomId
p1629
g52
sVAttrStatus
p1630
I241765
sVStatues
p1631
I0
stp1632
Rp1633
I1
bag34
(g38
g39
(dp1634
VUserName
p1635
V@81da26e8cdb8f86ce31a9a47ee13bf4648c1c95c95eb3c45b150d81d8148ae88
p1636
sVCity
p1637
V\u6df1\u5733
p1638
sVSnsFlag
p1639
I1
sVDisplayName
p1640
g52
sVUniFriend
p1641
I0
sVMemberCount
p1642
I0
sVOwnerUin
p1643
I0
sVMemberList
p1644
g50
sVAlias
p1645
g52
sVPYQuanPin
p1646
Vjinxiruchu
p1647
sVSignature
p1648
g52
sVRemarkPYInitial
p1649
VDD
p1650
sVContactFlag
p1651
I1
sVUin
p1652
I0
sVNickName
p1653
V\u4eca\u6614\u5982\u521d
p1654
sVAppAccountFlag
p1655
I0
sVVerifyFlag
p1656
I0
sVRemarkPYQuanPin
p1657
Vdiedie
p1658
sVHeadImgUrl
p1659
V/cgi-bin/mmwebwx-bin/webwxgeticon?seq=655576735&username=@81da26e8cdb8f86ce31a9a47ee13bf4648c1c95c95eb3c45b150d81d8148ae88&skey=@crypt_1196b7ca_75987b9c5ee6de072a03bdf8df0976ed
p1660
sVKeyWord
p1661
g52
sVProvince
p1662
V\u5e7f\u4e1c
p1663
sVPYInitial
p1664
VJXRC
p1665
sVRemarkName
p1666
V\u7239\u7239
p1667
sVIsOwner
p1668
I0
sVSex
p1669
I1
sVStarFriend
p1670
I0
sVHideInputBarFlag
p1671
I0
sVChatRoomId
p1672
I0
sVEncryChatRoomId
p1673
g52
sVAttrStatus
p1674
I4133
sVStatues
p1675
I0
stp1676
Rp1677
I1
bag34
(g38
g39
(dp1678
VUserName
p1679
V@85a21617abbdb19c28b2d42ecfd9e2627f2f2a5b5f4a489cd1cd1cc7bef25ec4
p1680
sVCity
p1681
g52
sVSnsFlag
p1682
I1
sVDisplayName
p1683
g52
sVUniFriend
p1684
I0
sVMemberCount
p1685
I0
sVOwnerUin
p1686
I0
sVMemberList
p1687
g50
sVAlias
p1688
g52
sVPYQuanPin
p1689
VSharon
p1690
sVSignature
p1691
V\u6211\u7684wifi\u732b\u732b\u6700\u840c\u4e48\u4e48\u54d2
p1692
sVRemarkPYInitial
p1693
VZY
p1694
sVContactFlag
p1695
I3
sVUin
p1696
I0
sVNickName
p1697
VSharon
p1698
sVAppAccountFlag
p1699
I0
sVVerifyFlag
p1700
I0
sVRemarkPYQuanPin
p1701
Vzhongyuan
p1702
sVHeadImgUrl
p1703
V/cgi-bin/mmwebwx-bin/webwxgeticon?seq=671057570&username=@85a21617abbdb19c28b2d42ecfd9e2627f2f2a5b5f4a489cd1cd1cc7bef25ec4&skey=@crypt_1196b7ca_75987b9c5ee6de072a03bdf8df0976ed
p1704
sVKeyWord
p1705
g52
sVProvince
p1706
V\u6e56\u5317
p1707
sVPYInitial
p1708
VSHARON
p1709
sVRemarkName
p1710
V\u949f\u5a9b
p1711
sVIsOwner
p1712
I0
sVSex
p1713
I2
sVStarFriend
p1714
I0
sVHideInputBarFlag
p1715
I0
sVChatRoomId
p1716
I0
sVEncryChatRoomId
p1717
g52
sVAttrStatus
p1718
I4133
sVStatues
p1719
I0
stp1720
Rp1721
I1
bag34
(g38
g39
(dp1722
VUserName
p1723
V@9de0c7b7f0a499226baa2c67e166b495886f97de595eec9233834523c8363955
p1724
sVCity
p1725
g52
sVSnsFlag
p1726
I1
sVDisplayName
p1727
g52
sVUniFriend
p1728
I0
sVMemberCount
p1729
I0
sVOwnerUin
p1730
I0
sVMemberList
p1731
g50
sVAlias
p1732
g52
sVPYQuanPin
p1733
Vxiao
p1734
sVSignature
p1735
V\u54c8\u54c8\u54c8
p1736
sVRemarkPYInitial
p1737
VCXF
p1738
sVContactFlag
p1739
I1
sVUin
p1740
I0
sVNickName
p1741
V\u67ad
p1742
sVAppAccountFlag
p1743
I0
sVVerifyFlag
p1744
I0
sVRemarkPYQuanPin
p1745
Vcaixiaofeng
p1746
sVHeadImgUrl
p1747
V/cgi-bin/mmwebwx-bin/webwxgeticon?seq=661108111&username=@9de0c7b7f0a499226baa2c67e166b495886f97de595eec9233834523c8363955&skey=@crypt_1196b7ca_75987b9c5ee6de072a03bdf8df0976ed
p1748
sVKeyWord
p1749
g52
sVProvince
p1750
g52
sVPYInitial
p1751
VX
p1752
sVRemarkName
p1753
V\u8521\u67ad\u5cf0
p1754
sVIsOwner
p1755
I0
sVSex
p1756
I1
sVStarFriend
p1757
I0
sVHideInputBarFlag
p1758
I0
sVChatRoomId
p1759
I0
sVEncryChatRoomId
p1760
g52
sVAttrStatus
p1761
I102437
sVStatues
p1762
I0
stp1763
Rp1764
I1
bag34
(g38
g39
(dp1765
VUserName
p1766
V@692181c10846113cd6b3cd69762da3c055a040997002d23ea7f2208b14fe0307
p1767
sVCity
p1768
g52
sVSnsFlag
p1769
I1
sVDisplayName
p1770
g52
sVUniFriend
p1771
I0
sVMemberCount
p1772
I0
sVOwnerUin
p1773
I0
sVMemberList
p1774
g50
sVAlias
p1775
g52
sVPYQuanPin
p1776
Vtongjinxiang
p1777
sVSignature
p1778
g52
sVRemarkPYInitial
p1779
VM
p1780
sVContactFlag
p1781
I3
sVUin
p1782
I0
sVNickName
p1783
V\u7ae5\u91d1\u9999
p1784
sVAppAccountFlag
p1785
I0
sVVerifyFlag
p1786
I0
sVRemarkPYQuanPin
p1787
Vma
p1788
sVHeadImgUrl
p1789
V/cgi-bin/mmwebwx-bin/webwxgeticon?seq=673558775&username=@692181c10846113cd6b3cd69762da3c055a040997002d23ea7f2208b14fe0307&skey=@crypt_1196b7ca_75987b9c5ee6de072a03bdf8df0976ed
p1790
sVKeyWord
p1791
g52
sVProvince
p1792
g52
sVPYInitial
p1793
VTJX
p1794
sVRemarkName
p1795
V\u5988
p1796
sVIsOwner
p1797
I0
sVSex
p1798
I0
sVStarFriend
p1799
I0
sVHideInputBarFlag
p1800
I0
sVChatRoomId
p1801
I0
sVEncryChatRoomId
p1802
g52
sVAttrStatus
p1803
I102437
sVStatues
p1804
I0
stp1805
Rp1806
I1
bag34
(g38
g39
(dp1807
VUserName
p1808
V@43629368954d143c1a134512d0f659d25c9120fb0d3811b6ab5c3a19b9801441
p1809
sVCity
p1810
V\u6b66\u6c49
p1811
sVSnsFlag
p1812
I1
sVDisplayName
p1813
g52
sVUniFriend
p1814
I0
sVMemberCount
p1815
I0
sVOwnerUin
p1816
I0
sVMemberList
p1817
g50
sVAlias
p1818
g52
sVPYQuanPin
p1819
Vmosheng
p1820
sVSignature
p1821
V$
p1822
sVRemarkPYInitial
p1823
VLC
p1824
sVContactFlag
p1825
I1
sVUin
p1826
I0
sVNickName
p1827
V\u58a8\u751f
p1828
sVAppAccountFlag
p1829
I0
sVVerifyFlag
p1830
I0
sVRemarkPYQuanPin
p1831
Vlicong
p1832
sVHeadImgUrl
p1833
V/cgi-bin/mmwebwx-bin/webwxgeticon?seq=672407426&username=@43629368954d143c1a134512d0f659d25c9120fb0d3811b6ab5c3a19b9801441&skey=@crypt_1196b7ca_75987b9c5ee6de072a03bdf8df0976ed
p1834
sVKeyWord
p1835
g52
sVProvince
p1836
V\u6e56\u5317
p1837
sVPYInitial
p1838
VMS
p1839
sVRemarkName
p1840
V\u674e\u806a
p1841
sVIsOwner
p1842
I0
sVSex
p1843
I1
sVStarFriend
p1844
I0
sVHideInputBarFlag
p1845
I0
sVChatRoomId
p1846
I0
sVEncryChatRoomId
p1847
g52
sVAttrStatus
p1848
I12389
sVStatues
p1849
I0
stp1850
Rp1851
I1
bag34
(g38
g39
(dp1852
VUserName
p1853
V@b751f7bca7b4a4db29eb49f6b440d93314e2fc3129b693c672025bf6421a4302
p1854
sVCity
p1855
g52
sVSnsFlag
p1856
I177
sVDisplayName
p1857
g52
sVUniFriend
p1858
I0
sVMemberCount
p1859
I0
sVOwnerUin
p1860
I0
sVMemberList
p1861
g50
sVAlias
p1862
g52
sVPYQuanPin
p1863
Vshanghaianchuangtonggekunmingjingguangshenchuzuzhuoyi
p1864
sVSignature
p1865
V\u4f1a\u573a\u7528\u54c1\u79df\u8d41\u3001\u5e03\u7f6e\uff0c\u5168\u56fd\u8fde\u9501\u3002\u5b9e\u529b\u5f3a\uff0c\u6709\u62c5\u5f53\u3002www.cntg66.com
p1866
sVRemarkPYInitial
p1867
g52
sVContactFlag
p1868
I1
sVUin
p1869
I0
sVNickName
p1870
V\u4e0a\u6d77\u5b89\u521b-\u540c\u6b4c\u6606\u660e\u4eac\u5e7f\u6df1\u51fa\u79df\u684c\u6905
p1871
sVAppAccountFlag
p1872
I0
sVVerifyFlag
p1873
I0
sVRemarkPYQuanPin
p1874
g52
sVHeadImgUrl
p1875
V/cgi-bin/mmwebwx-bin/webwxgeticon?seq=673557178&username=@b751f7bca7b4a4db29eb49f6b440d93314e2fc3129b693c672025bf6421a4302&skey=@crypt_1196b7ca_75987b9c5ee6de072a03bdf8df0976ed
p1876
sVKeyWord
p1877
g52
sVProvince
p1878
g52
sVPYInitial
p1879
VSHACTGKMJGSCZZY
p1880
sVRemarkName
p1881
g52
sVIsOwner
p1882
I0
sVSex
p1883
I2
sVStarFriend
p1884
I0
sVHideInputBarFlag
p1885
I0
sVChatRoomId
p1886
I0
sVEncryChatRoomId
p1887
g52
sVAttrStatus
p1888
I102725
sVStatues
p1889
I0
stp1890
Rp1891
I1
bag34
(g38
g39
(dp1892
VUserName
p1893
V@6bdcbe4accbc3f75f897c8b64bf7e8443129e5877610abe1323d345e38cf59c3
p1894
sVCity
p1895
g52
sVSnsFlag
p1896
I1
sVDisplayName
p1897
g52
sVUniFriend
p1898
I0
sVMemberCount
p1899
I0
sVOwnerUin
p1900
I0
sVMemberList
p1901
g50
sVAlias
p1902
g52
sVPYQuanPin
p1903
Vpikapikajiu
p1904
sVSignature
p1905
g52
sVRemarkPYInitial
p1906
VLZX
p1907
sVContactFlag
p1908
I3
sVUin
p1909
I0
sVNickName
p1910
V\u76ae\u5361\u76ae\u5361\u557e
p1911
sVAppAccountFlag
p1912
I0
sVVerifyFlag
p1913
I0
sVRemarkPYQuanPin
p1914
Vlizixian
p1915
sVHeadImgUrl
p1916
V/cgi-bin/mmwebwx-bin/webwxgeticon?seq=673558943&username=@6bdcbe4accbc3f75f897c8b64bf7e8443129e5877610abe1323d345e38cf59c3&skey=@crypt_1196b7ca_75987b9c5ee6de072a03bdf8df0976ed
p1917
sVKeyWord
p1918
g52
sVProvince
p1919
g52
sVPYInitial
p1920
VPKPKJ
p1921
sVRemarkName
p1922
V\u674e\u7d2b\u5a34
p1923
sVIsOwner
p1924
I0
sVSex
p1925
I2
sVStarFriend
p1926
I0
sVHideInputBarFlag
p1927
I0
sVChatRoomId
p1928
I0
sVEncryChatRoomId
p1929
g52
sVAttrStatus
p1930
I33558629
sVStatues
p1931
I0
stp1932
Rp1933
I1
bag34
(g38
g39
(dp1934
VUserName
p1935
V@d14f1c9eda1085136102162647ef9dea1655355e71d93a25b60cb7a077684fc8
p1936
sVCity
p1937
g52
sVSnsFlag
p1938
I1
sVDisplayName
p1939
g52
sVUniFriend
p1940
I0
sVMemberCount
p1941
I0
sVOwnerUin
p1942
I0
sVMemberList
p1943
g50
sVAlias
p1944
g52
sVPYQuanPin
p1945
Vfumao
p1946
sVSignature
p1947
g52
sVRemarkPYInitial
p1948
VEB
p1949
sVContactFlag
p1950
I1
sVUin
p1951
I0
sVNickName
p1952
V\u4ed8\u6bdb
p1953
sVAppAccountFlag
p1954
I0
sVVerifyFlag
p1955
I0
sVRemarkPYQuanPin
p1956
Verbai
p1957
sVHeadImgUrl
p1958
V/cgi-bin/mmwebwx-bin/webwxgeticon?seq=673558963&username=@d14f1c9eda1085136102162647ef9dea1655355e71d93a25b60cb7a077684fc8&skey=@crypt_1196b7ca_75987b9c5ee6de072a03bdf8df0976ed
p1959
sVKeyWord
p1960
g52
sVProvince
p1961
g52
sVPYInitial
p1962
VFM
p1963
sVRemarkName
p1964
V\u4e8c\u4f2f
p1965
sVIsOwner
p1966
I0
sVSex
p1967
I1
sVStarFriend
p1968
I0
sVHideInputBarFlag
p1969
I0
sVChatRoomId
p1970
I0
sVEncryChatRoomId
p1971
g52
sVAttrStatus
p1972
I4133
sVStatues
p1973
I0
stp1974
Rp1975
I1
bag34
(g38
g39
(dp1976
VUserName
p1977
V@995ebad04bc5135ff77b9e7799e618d150b56d91e4ad35e6500c3d55fa0c693e
p1978
sVCity
p1979
V\u6606\u660e
p1980
sVSnsFlag
p1981
I49
sVDisplayName
p1982
g52
sVUniFriend
p1983
I0
sVMemberCount
p1984
I0
sVOwnerUin
p1985
I0
sVMemberList
p1986
g50
sVAlias
p1987
g52
sVPYQuanPin
p1988
Vyigerangrenhuquyizhendemeinanzi
p1989
sVSignature
p1990
g52
sVRemarkPYInitial
p1991
VH
p1992
sVContactFlag
p1993
I3
sVUin
p1994
I0
sVNickName
p1995
V\u4e00\u4e2a\u8ba9\u4eba\u864e\u8eaf\u4e00\u9707\u7684\u7f8e\u7537\u5b50
p1996
sVAppAccountFlag
p1997
I0
sVVerifyFlag
p1998
I0
sVRemarkPYQuanPin
p1999
Vhuang
p2000
sVHeadImgUrl
p2001
V/cgi-bin/mmwebwx-bin/webwxgeticon?seq=673559008&username=@995ebad04bc5135ff77b9e7799e618d150b56d91e4ad35e6500c3d55fa0c693e&skey=@crypt_1196b7ca_75987b9c5ee6de072a03bdf8df0976ed
p2002
sVKeyWord
p2003
g52
sVProvince
p2004
V\u4e91\u5357
p2005
sVPYInitial
p2006
VYGRRHQYZDMNZ
p2007
sVRemarkName
p2008
V\u9ec4
p2009
sVIsOwner
p2010
I0
sVSex
p2011
I1
sVStarFriend
p2012
I0
sVHideInputBarFlag
p2013
I0
sVChatRoomId
p2014
I0
sVEncryChatRoomId
p2015
g52
sVAttrStatus
p2016
I17011493
sVStatues
p2017
I0
stp2018
Rp2019
I1
bag34
(g38
g39
(dp2020
VUserName
p2021
V@2e4788af435c90ef65588f7532fb561ff2e9955277675dd1dfac640a375ed2d2
p2022
sVCity
p2023
V\u5b5d\u611f
p2024
sVSnsFlag
p2025
I49
sVDisplayName
p2026
g52
sVUniFriend
p2027
I0
sVMemberCount
p2028
I0
sVOwnerUin
p2029
I0
sVMemberList
p2030
g50
sVAlias
p2031
g52
sVPYQuanPin
p2032
Vjingdaihuakaispanclassemojiemoji1f339span
p2033
sVSignature
p2034
V\u96e8\u9732\u4e2d\u7684\u73ab\u7470
p2035
sVRemarkPYInitial
p2036
VGG
p2037
sVContactFlag
p2038
I3
sVUin
p2039
I0
sVNickName
p2040
V\u9759\u5f85\u82b1\u5f00\U0001f339
p2041
sVAppAccountFlag
p2042
I0
sVVerifyFlag
p2043
I0
sVRemarkPYQuanPin
p2044
Vgangan
p2045
sVHeadImgUrl
p2046
V/cgi-bin/mmwebwx-bin/webwxgeticon?seq=659856087&username=@2e4788af435c90ef65588f7532fb561ff2e9955277675dd1dfac640a375ed2d2&skey=@crypt_1196b7ca_75987b9c5ee6de072a03bdf8df0976ed
p2047
sVKeyWord
p2048
g52
sVProvince
p2049
V\u6e56\u5317
p2050
sVPYInitial
p2051
VJDHKSPANCLASSEMOJIEMOJI1F339SPAN
p2052
sVRemarkName
p2053
V\u5e72\u5e72
p2054
sVIsOwner
p2055
I0
sVSex
p2056
I2
sVStarFriend
p2057
I0
sVHideInputBarFlag
p2058
I0
sVChatRoomId
p2059
I0
sVEncryChatRoomId
p2060
g52
sVAttrStatus
p2061
I69821
sVStatues
p2062
I0
stp2063
Rp2064
I1
bag34
(g38
g39
(dp2065
VUserName
p2066
V@7d41a1a3fa4e9f6d5848531a13e455bf
p2067
sVCity
p2068
V\u5408\u80a5
p2069
sVSnsFlag
p2070
I17
sVDisplayName
p2071
g52
sVUniFriend
p2072
I0
sVMemberCount
p2073
I0
sVOwnerUin
p2074
I0
sVMemberList
p2075
g50
sVAlias
p2076
g52
sVPYQuanPin
p2077
Vtietoumaomaohenzhuanzhu
p2078
sVSignature
p2079
V\u94c1\u5934 \u4e13\u6ce8 \u8ba4\u771f \u6b7b\u4e5f\u8981\u4e0a
p2080
sVRemarkPYInitial
p2081
VCQC
p2082
sVContactFlag
p2083
I3
sVUin
p2084
I0
sVNickName
p2085
V\u94c1\u5934\u5192\u5192\u5f88\u4e13\u6ce8
p2086
sVAppAccountFlag
p2087
I0
sVVerifyFlag
p2088
I0
sVRemarkPYQuanPin
p2089
Vcaoqianchang
p2090
sVHeadImgUrl
p2091
V/cgi-bin/mmwebwx-bin/webwxgeticon?seq=671057571&username=@7d41a1a3fa4e9f6d5848531a13e455bf&skey=@crypt_1196b7ca_75987b9c5ee6de072a03bdf8df0976ed
p2092
sVKeyWord
p2093
Vcqc
p2094
sVProvince
p2095
V\u5b89\u5fbd
p2096
sVPYInitial
p2097
VTTMMHZZ
p2098
sVRemarkName
p2099
V\u66f9\u524d\u660c
p2100
sVIsOwner
p2101
I0
sVSex
p2102
I1
sVStarFriend
p2103
I0
sVHideInputBarFlag
p2104
I0
sVChatRoomId
p2105
I0
sVEncryChatRoomId
p2106
g52
sVAttrStatus
p2107
I33675303
sVStatues
p2108
I0
stp2109
Rp2110
I1
bag34
(g38
g39
(dp2111
VUserName
p2112
V@e4bb7b88c79cf648d692a601309a89fbf063e49d3b71812564f7c1956e62e7fa
p2113
sVCity
p2114
V\u6df1\u5733
p2115
sVSnsFlag
p2116
I1
sVDisplayName
p2117
g52
sVUniFriend
p2118
I0
sVMemberCount
p2119
I0
sVOwnerUin
p2120
I0
sVMemberList
p2121
g50
sVAlias
p2122
g52
sVPYQuanPin
p2123
VAfeiyusifangjie
p2124
sVSignature
p2125
V\u6d3b\u7740\u624d\u662f\u80dc\u5229\uff0c\u8d5a\u94b1\u53ea\u662f\u6e38\u620f\uff0c\u5065\u5eb7\u624d\u662f\u76ee\u7684\uff0c\u5feb\u4e50\u771f\u8c1b\u3002
p2126
sVRemarkPYInitial
p2127
VFYJSZJ
p2128
sVContactFlag
p2129
I259
sVUin
p2130
I0
sVNickName
p2131
VA\u83f2\u5b87\uff5e\u56db\u65b9\u8857
p2132
sVAppAccountFlag
p2133
I0
sVVerifyFlag
p2134
I0
sVRemarkPYQuanPin
p2135
Vfeiyujianshenzoujun
p2136
sVHeadImgUrl
p2137
V/cgi-bin/mmwebwx-bin/webwxgeticon?seq=673559181&username=@e4bb7b88c79cf648d692a601309a89fbf063e49d3b71812564f7c1956e62e7fa&skey=@crypt_1196b7ca_75987b9c5ee6de072a03bdf8df0976ed
p2138
sVKeyWord
p2139
g52
sVProvince
p2140
V\u5e7f\u4e1c
p2141
sVPYInitial
p2142
VAFYSFJ
p2143
sVRemarkName
p2144
V\u83f2\u5b87\u5065\u8eab\u90b9\u4fca
p2145
sVIsOwner
p2146
I0
sVSex
p2147
I1
sVStarFriend
p2148
I0
sVHideInputBarFlag
p2149
I0
sVChatRoomId
p2150
I0
sVEncryChatRoomId
p2151
g52
sVAttrStatus
p2152
I102437
sVStatues
p2153
I0
stp2154
Rp2155
I1
bag34
(g38
g39
(dp2156
VUserName
p2157
V@7e1f770eb29cb0b7ee365291e5ddae44b7af3b572bfc3d69d50bbd61e006d170
p2158
sVCity
p2159
g52
sVSnsFlag
p2160
I1
sVDisplayName
p2161
g52
sVUniFriend
p2162
I0
sVMemberCount
p2163
I0
sVOwnerUin
p2164
I0
sVMemberList
p2165
g50
sVAlias
p2166
g52
sVPYQuanPin
p2167
Vkun
p2168
sVSignature
p2169
g52
sVRemarkPYInitial
p2170
VHZK
p2171
sVContactFlag
p2172
I65795
sVUin
p2173
I0
sVNickName
p2174
V\u2605-\u2606\u5764
p2175
sVAppAccountFlag
p2176
I0
sVVerifyFlag
p2177
I0
sVRemarkPYQuanPin
p2178
Vhezekun
p2179
sVHeadImgUrl
p2180
V/cgi-bin/mmwebwx-bin/webwxgeticon?seq=673559478&username=@7e1f770eb29cb0b7ee365291e5ddae44b7af3b572bfc3d69d50bbd61e006d170&skey=@crypt_1196b7ca_75987b9c5ee6de072a03bdf8df0976ed
p2181
sVKeyWord
p2182
g52
sVProvince
p2183
g52
sVPYInitial
p2184
VK
p2185
sVRemarkName
p2186
V\u4f55\u6cfd\u5764
p2187
sVIsOwner
p2188
I0
sVSex
p2189
I0
sVStarFriend
p2190
I0
sVHideInputBarFlag
p2191
I0
sVChatRoomId
p2192
I0
sVEncryChatRoomId
p2193
g52
sVAttrStatus
p2194
I4133
sVStatues
p2195
I0
stp2196
Rp2197
I1
bag34
(g38
g39
(dp2198
VUserName
p2199
V@8461601534748969ac0eda55e2c6c2d20325f7ccca7dc4dafbde06826128bfd6
p2200
sVCity
p2201
V\u671d\u9633
p2202
sVSnsFlag
p2203
I1
sVDisplayName
p2204
g52
sVUniFriend
p2205
I0
sVMemberCount
p2206
I0
sVOwnerUin
p2207
I0
sVMemberList
p2208
g50
sVAlias
p2209
g52
sVPYQuanPin
p2210
Vhaihaoma
p2211
sVSignature
p2212
g52
sVRemarkPYInitial
p2213
g52
sVContactFlag
p2214
I3
sVUin
p2215
I0
sVNickName
p2216
V\u9084\u597d\u55ce
p2217
sVAppAccountFlag
p2218
I0
sVVerifyFlag
p2219
I0
sVRemarkPYQuanPin
p2220
g52
sVHeadImgUrl
p2221
V/cgi-bin/mmwebwx-bin/webwxgeticon?seq=671054321&username=@8461601534748969ac0eda55e2c6c2d20325f7ccca7dc4dafbde06826128bfd6&skey=@crypt_1196b7ca_75987b9c5ee6de072a03bdf8df0976ed
p2222
sVKeyWord
p2223
g52
sVProvince
p2224
V\u5317\u4eac
p2225
sVPYInitial
p2226
VHHM
p2227
sVRemarkName
p2228
g52
sVIsOwner
p2229
I0
sVSex
p2230
I1
sVStarFriend
p2231
I0
sVHideInputBarFlag
p2232
I0
sVChatRoomId
p2233
I0
sVEncryChatRoomId
p2234
g52
sVAttrStatus
p2235
I21074021
sVStatues
p2236
I0
stp2237
Rp2238
I1
bag34
(g38
g39
(dp2239
VUserName
p2240
V@5f32f517c9459b43a014d286a7b4920d376f8245a83ce353e07382818a75d6e6
p2241
sVCity
p2242
g52
sVSnsFlag
p2243
I0
sVDisplayName
p2244
g52
sVUniFriend
p2245
I0
sVMemberCount
p2246
I0
sVOwnerUin
p2247
I0
sVMemberList
p2248
g50
sVAlias
p2249
g52
sVPYQuanPin
p2250
Vwojiaodeniyoudianyange
p2251
sVSignature
p2252
g52
sVRemarkPYInitial
p2253
g52
sVContactFlag
p2254
I1
sVUin
p2255
I0
sVNickName
p2256
V\u6211\u89c9\u5f97\u4f60\u6709\u70b9\u4e25\u683c
p2257
sVAppAccountFlag
p2258
I0
sVVerifyFlag
p2259
I0
sVRemarkPYQuanPin
p2260
g52
sVHeadImgUrl
p2261
V/cgi-bin/mmwebwx-bin/webwxgeticon?seq=661087411&username=@5f32f517c9459b43a014d286a7b4920d376f8245a83ce353e07382818a75d6e6&skey=@crypt_1196b7ca_75987b9c5ee6de072a03bdf8df0976ed
p2262
sVKeyWord
p2263
g52
sVProvince
p2264
g52
sVPYInitial
p2265
VWJDNYDYG
p2266
sVRemarkName
p2267
g52
sVIsOwner
p2268
I0
sVSex
p2269
I1
sVStarFriend
p2270
I0
sVHideInputBarFlag
p2271
I0
sVChatRoomId
p2272
I0
sVEncryChatRoomId
p2273
g52
sVAttrStatus
p2274
I4389
sVStatues
p2275
I0
stp2276
Rp2277
I1
bag34
(g38
g39
(dp2278
VUserName
p2279
V@09257045577e40c82a3ca7bf25d2dc0a8e4a851f27a17a7322671367f898351d
p2280
sVCity
p2281
g52
sVSnsFlag
p2282
I1
sVDisplayName
p2283
g52
sVUniFriend
p2284
I0
sVMemberCount
p2285
I0
sVOwnerUin
p2286
I0
sVMemberList
p2287
g50
sVAlias
p2288
g52
sVPYQuanPin
p2289
Vzzzzed
p2290
sVSignature
p2291
g52
sVRemarkPYInitial
p2292
VZYH
p2293
sVContactFlag
p2294
I3
sVUin
p2295
I0
sVNickName
p2296
Vzzzzed
p2297
sVAppAccountFlag
p2298
I0
sVVerifyFlag
p2299
I0
sVRemarkPYQuanPin
p2300
Vzhangyuhao
p2301
sVHeadImgUrl
p2302
V/cgi-bin/mmwebwx-bin/webwxgeticon?seq=673559642&username=@09257045577e40c82a3ca7bf25d2dc0a8e4a851f27a17a7322671367f898351d&skey=@crypt_1196b7ca_75987b9c5ee6de072a03bdf8df0976ed
p2303
sVKeyWord
p2304
g52
sVProvince
p2305
g52
sVPYInitial
p2306
VZZZZED
p2307
sVRemarkName
p2308
V\u5f20\u5b87\u8c6a
p2309
sVIsOwner
p2310
I0
sVSex
p2311
I1
sVStarFriend
p2312
I0
sVHideInputBarFlag
p2313
I0
sVChatRoomId
p2314
I0
sVEncryChatRoomId
p2315
g52
sVAttrStatus
p2316
I233509
sVStatues
p2317
I0
stp2318
Rp2319
I1
bag34
(g38
g39
(dp2320
VUserName
p2321
V@72e2004434d96f10187555ace21e8b875ffd3c04550b049c81964ce0f2b09b9f
p2322
sVCity
p2323
g52
sVSnsFlag
p2324
I1
sVDisplayName
p2325
g52
sVUniFriend
p2326
I0
sVMemberCount
p2327
I0
sVOwnerUin
p2328
I0
sVMemberList
p2329
g50
sVAlias
p2330
g52
sVPYQuanPin
p2331
Vpadaxin
p2332
sVSignature
p2333
V\u66fe\u7ecf\u68a6\u60f3\u4ed7\u5251\u8d70\u5929\u6daf\u000a\u540e\u6765\u4f5c\u4e1a\u592a\u591a\u5c31\u6ca1\u53bb
p2334
sVRemarkPYInitial
p2335
VZX
p2336
sVContactFlag
p2337
I1
sVUin
p2338
I0
sVNickName
p2339
V\u6d3e\u5927\u6b23
p2340
sVAppAccountFlag
p2341
I0
sVVerifyFlag
p2342
I0
sVRemarkPYQuanPin
p2343
Vzhangxin
p2344
sVHeadImgUrl
p2345
V/cgi-bin/mmwebwx-bin/webwxgeticon?seq=673559801&username=@72e2004434d96f10187555ace21e8b875ffd3c04550b049c81964ce0f2b09b9f&skey=@crypt_1196b7ca_75987b9c5ee6de072a03bdf8df0976ed
p2346
sVKeyWord
p2347
g52
sVProvince
p2348
g52
sVPYInitial
p2349
VPDX
p2350
sVRemarkName
p2351
V\u5f20\u6b23
p2352
sVIsOwner
p2353
I0
sVSex
p2354
I2
sVStarFriend
p2355
I0
sVHideInputBarFlag
p2356
I0
sVChatRoomId
p2357
I0
sVEncryChatRoomId
p2358
g52
sVAttrStatus
p2359
I4197
sVStatues
p2360
I0
stp2361
Rp2362
I1
bag34
(g38
g39
(dp2363
VUserName
p2364
V@cb413129afe571e6c355edfe3c66618acca71bb64a0a2dde8bb403042d0c08b2
p2365
sVCity
p2366
V\u4fdd\u5b9a
p2367
sVSnsFlag
p2368
I1
sVDisplayName
p2369
g52
sVUniFriend
p2370
I0
sVMemberCount
p2371
I0
sVOwnerUin
p2372
I0
sVMemberList
p2373
g50
sVAlias
p2374
g52
sVPYQuanPin
p2375
Vxiaoqin
p2376
sVSignature
p2377
V\u8ba4\u771f\u52aa\u529b\u603b\u4f1a\u4ea4\u5230\u597d\u8fd0\u3002
p2378
sVRemarkPYInitial
p2379
VXQSZ
p2380
sVContactFlag
p2381
I3
sVUin
p2382
I0
sVNickName
p2383
V\u5c0f\u7434
p2384
sVAppAccountFlag
p2385
I0
sVVerifyFlag
p2386
I0
sVRemarkPYQuanPin
p2387
Vxiaoqinsaozi
p2388
sVHeadImgUrl
p2389
V/cgi-bin/mmwebwx-bin/webwxgeticon?seq=673559841&username=@cb413129afe571e6c355edfe3c66618acca71bb64a0a2dde8bb403042d0c08b2&skey=@crypt_1196b7ca_75987b9c5ee6de072a03bdf8df0976ed
p2390
sVKeyWord
p2391
g52
sVProvince
p2392
V\u6cb3\u5317
p2393
sVPYInitial
p2394
VXQ
p2395
sVRemarkName
p2396
V\u5c0f\u7434\u5ac2\u5b50
p2397
sVIsOwner
p2398
I0
sVSex
p2399
I2
sVStarFriend
p2400
I0
sVHideInputBarFlag
p2401
I0
sVChatRoomId
p2402
I0
sVEncryChatRoomId
p2403
g52
sVAttrStatus
p2404
I102501
sVStatues
p2405
I0
stp2406
Rp2407
I1
bag34
(g38
g39
(dp2408
VUserName
p2409
V@84cf250d4cc64558a87ca58ada9da2dc449cad949008ab3d7ec0aea8eb027e9a
p2410
sVCity
p2411
g52
sVSnsFlag
p2412
I17
sVDisplayName
p2413
g52
sVUniFriend
p2414
I0
sVMemberCount
p2415
I0
sVOwnerUin
p2416
I0
sVMemberList
p2417
g50
sVAlias
p2418
g52
sVPYQuanPin
p2419
Vhapeng
p2420
sVSignature
p2421
g52
sVRemarkPYInitial
p2422
VLXPXC
p2423
sVContactFlag
p2424
I3
sVUin
p2425
I0
sVNickName
p2426
V\u54c8\u9e4f
p2427
sVAppAccountFlag
p2428
I0
sVVerifyFlag
p2429
I0
sVRemarkPYQuanPin
p2430
Vlixipengxuechang
p2431
sVHeadImgUrl
p2432
V/cgi-bin/mmwebwx-bin/webwxgeticon?seq=673559856&username=@84cf250d4cc64558a87ca58ada9da2dc449cad949008ab3d7ec0aea8eb027e9a&skey=@crypt_1196b7ca_75987b9c5ee6de072a03bdf8df0976ed
p2433
sVKeyWord
p2434
g52
sVProvince
p2435
g52
sVPYInitial
p2436
VHP
p2437
sVRemarkName
p2438
V\u674e\u7ec6\u9e4f\u5b66\u957f
p2439
sVIsOwner
p2440
I0
sVSex
p2441
I1
sVStarFriend
p2442
I0
sVHideInputBarFlag
p2443
I0
sVChatRoomId
p2444
I0
sVEncryChatRoomId
p2445
g52
sVAttrStatus
p2446
I102501
sVStatues
p2447
I0
stp2448
Rp2449
I1
bag34
(g38
g39
(dp2450
VUserName
p2451
V@8a4507559897c8432393e1f7e812e1b6848bb40284f683426fddc997c46f5ded
p2452
sVCity
p2453
V\u5b5d\u611f
p2454
sVSnsFlag
p2455
I49
sVDisplayName
p2456
g52
sVUniFriend
p2457
I0
sVMemberCount
p2458
I0
sVOwnerUin
p2459
I0
sVMemberList
p2460
g50
sVAlias
p2461
g52
sVPYQuanPin
p2462
VFutongyu?
p2463
sVSignature
p2464
V\u987a\u5176\u81ea\u7136\u968f\u9047\u800c\u5b89
p2465
sVRemarkPYInitial
p2466
VBIGGER
p2467
sVContactFlag
p2468
I3
sVUin
p2469
I0
sVNickName
p2470
VFu\u7ae5\u8bed\U0001f608
p2471
sVAppAccountFlag
p2472
I0
sVVerifyFlag
p2473
I0
sVRemarkPYQuanPin
p2474
Vbigger
p2475
sVHeadImgUrl
p2476
V/cgi-bin/mmwebwx-bin/webwxgeticon?seq=673559915&username=@8a4507559897c8432393e1f7e812e1b6848bb40284f683426fddc997c46f5ded&skey=@crypt_1196b7ca_75987b9c5ee6de072a03bdf8df0976ed
p2477
sVKeyWord
p2478
g52
sVProvince
p2479
V\u6e56\u5317
p2480
sVPYInitial
p2481
VFUTY?
p2482
sVRemarkName
p2483
Vbigger
p2484
sVIsOwner
p2485
I0
sVSex
p2486
I2
sVStarFriend
p2487
I0
sVHideInputBarFlag
p2488
I0
sVChatRoomId
p2489
I0
sVEncryChatRoomId
p2490
g52
sVAttrStatus
p2491
I103527
sVStatues
p2492
I0
stp2493
Rp2494
I1
bag34
(g38
g39
(dp2495
VUserName
p2496
V@58ce284f7b7da2beea09433d7b4b44e6bdb282e4cdc7a09386b91d5c3ffc505d
p2497
sVCity
p2498
g52
sVSnsFlag
p2499
I1
sVDisplayName
p2500
g52
sVUniFriend
p2501
I0
sVMemberCount
p2502
I0
sVOwnerUin
p2503
I0
sVMemberList
p2504
g50
sVAlias
p2505
g52
sVPYQuanPin
p2506
Vxiaoxiannvchenyimier
p2507
sVSignature
p2508
V\u82e5\u8981\u5982\u4f55\uff0c\u5168\u770b\u81ea\u5df1
p2509
sVRemarkPYInitial
p2510
VFYJSFC
p2511
sVContactFlag
p2512
I3
sVUin
p2513
I0
sVNickName
p2514
V\u5c0f\u4ed9\u5973\u9648\u4e00\u7c73\u513f
p2515
sVAppAccountFlag
p2516
I0
sVVerifyFlag
p2517
I0
sVRemarkPYQuanPin
p2518
Vfeiyujianshenfangchen
p2519
sVHeadImgUrl
p2520
V/cgi-bin/mmwebwx-bin/webwxgeticon?seq=672404424&username=@58ce284f7b7da2beea09433d7b4b44e6bdb282e4cdc7a09386b91d5c3ffc505d&skey=@crypt_1196b7ca_75987b9c5ee6de072a03bdf8df0976ed
p2521
sVKeyWord
p2522
g52
sVProvince
p2523
g52
sVPYInitial
p2524
VXXNCYME
p2525
sVRemarkName
p2526
V\u83f2\u5b87\u5065\u8eab\u623f\u9648
p2527
sVIsOwner
p2528
I0
sVSex
p2529
I0
sVStarFriend
p2530
I0
sVHideInputBarFlag
p2531
I0
sVChatRoomId
p2532
I0
sVEncryChatRoomId
p2533
g52
sVAttrStatus
p2534
I102405
sVStatues
p2535
I0
stp2536
Rp2537
I1
bag34
(g38
g39
(dp2538
VUserName
p2539
V@85539d6a2b4e685850b18441849a23b804d232e3ca99764bba29fdd2cbf3f54c
p2540
sVCity
p2541
g52
sVSnsFlag
p2542
I17
sVDisplayName
p2543
g52
sVUniFriend
p2544
I0
sVMemberCount
p2545
I0
sVOwnerUin
p2546
I0
sVMemberList
p2547
g50
sVAlias
p2548
g52
sVPYQuanPin
p2549
Vjiuxuanlvlilaoshi
p2550
sVSignature
p2551
V\u4e00\u9996\u6b4c\uff0c\u4e00\u6545\u4e8b
p2552
sVRemarkPYInitial
p2553
VQXLLS
p2554
sVContactFlag
p2555
I3
sVUin
p2556
I0
sVNickName
p2557
V\u7396\u65cb\u5f8b\u674e\u8001\u5e08
p2558
sVAppAccountFlag
p2559
I0
sVVerifyFlag
p2560
I0
sVRemarkPYQuanPin
p2561
Vqinxinglilaoshi
p2562
sVHeadImgUrl
p2563
V/cgi-bin/mmwebwx-bin/webwxgeticon?seq=672194172&username=@85539d6a2b4e685850b18441849a23b804d232e3ca99764bba29fdd2cbf3f54c&skey=@crypt_1196b7ca_75987b9c5ee6de072a03bdf8df0976ed
p2564
sVKeyWord
p2565
g52
sVProvince
p2566
g52
sVPYInitial
p2567
VJXLLLS
p2568
sVRemarkName
p2569
V\u7434\u884c\u674e\u8001\u5e08
p2570
sVIsOwner
p2571
I0
sVSex
p2572
I1
sVStarFriend
p2573
I0
sVHideInputBarFlag
p2574
I0
sVChatRoomId
p2575
I0
sVEncryChatRoomId
p2576
g52
sVAttrStatus
p2577
I33787941
sVStatues
p2578
I0
stp2579
Rp2580
I1
bag34
(g38
g39
(dp2581
VUserName
p2582
V@54b66bb0650e2461ec336c45f2ada8fc2efddaccdc6a446d805386d6fae280e3
p2583
sVCity
p2584
V\u6b66\u6c49
p2585
sVSnsFlag
p2586
I1
sVDisplayName
p2587
g52
sVUniFriend
p2588
I0
sVMemberCount
p2589
I0
sVOwnerUin
p2590
I0
sVMemberList
p2591
g50
sVAlias
p2592
g52
sVPYQuanPin
p2593
Vyonghuang
p2594
sVSignature
p2595
V-
p2596
sVRemarkPYInitial
p2597
VXG
p2598
sVContactFlag
p2599
I3
sVUin
p2600
I0
sVNickName
p2601
V\u62e5\u8352\u3002
p2602
sVAppAccountFlag
p2603
I0
sVVerifyFlag
p2604
I0
sVRemarkPYQuanPin
p2605
Vxiaoge
p2606
sVHeadImgUrl
p2607
V/cgi-bin/mmwebwx-bin/webwxgeticon?seq=673560241&username=@54b66bb0650e2461ec336c45f2ada8fc2efddaccdc6a446d805386d6fae280e3&skey=@crypt_1196b7ca_75987b9c5ee6de072a03bdf8df0976ed
p2608
sVKeyWord
p2609
g52
sVProvince
p2610
V\u6e56\u5317
p2611
sVPYInitial
p2612
VYH
p2613
sVRemarkName
p2614
V\u5c0f\u54e5
p2615
sVIsOwner
p2616
I0
sVSex
p2617
I1
sVStarFriend
p2618
I0
sVHideInputBarFlag
p2619
I0
sVChatRoomId
p2620
I0
sVEncryChatRoomId
p2621
g52
sVAttrStatus
p2622
I33653221
sVStatues
p2623
I0
stp2624
Rp2625
I1
bag34
(g38
g39
(dp2626
VUserName
p2627
V@c396bae7f1fe7a0f6f06766a905ee5171ca270c35b83eafb55ff38384e57a028
p2628
sVCity
p2629
VDevonport
p2630
sVSnsFlag
p2631
I17
sVDisplayName
p2632
g52
sVUniFriend
p2633
I0
sVMemberCount
p2634
I0
sVOwnerUin
p2635
I0
sVMemberList
p2636
g50
sVAlias
p2637
g52
sVPYQuanPin
p2638
Vlililililisa
p2639
sVSignature
p2640
g52
sVRemarkPYInitial
p2641
VLLS
p2642
sVContactFlag
p2643
I1
sVUin
p2644
I0
sVNickName
p2645
Vlilililili sa
p2646
sVAppAccountFlag
p2647
I0
sVVerifyFlag
p2648
I0
sVRemarkPYQuanPin
p2649
Vliulisha
p2650
sVHeadImgUrl
p2651
V/cgi-bin/mmwebwx-bin/webwxgeticon?seq=672405807&username=@c396bae7f1fe7a0f6f06766a905ee5171ca270c35b83eafb55ff38384e57a028&skey=@crypt_1196b7ca_75987b9c5ee6de072a03bdf8df0976ed
p2652
sVKeyWord
p2653
g52
sVProvince
p2654
VTasmania
p2655
sVPYInitial
p2656
VLILILILILISA
p2657
sVRemarkName
p2658
V\u5218\u4e3d\u838e
p2659
sVIsOwner
p2660
I0
sVSex
p2661
I2
sVStarFriend
p2662
I0
sVHideInputBarFlag
p2663
I0
sVChatRoomId
p2664
I0
sVEncryChatRoomId
p2665
g52
sVAttrStatus
p2666
I37029
sVStatues
p2667
I0
stp2668
Rp2669
I1
bag34
(g38
g39
(dp2670
VUserName
p2671
V@cd597798ebe94a377fb361b9245576c53e7db9f4fa963bdcab2456c745002e8d
p2672
sVCity
p2673
g52
sVSnsFlag
p2674
I1
sVDisplayName
p2675
g52
sVUniFriend
p2676
I0
sVMemberCount
p2677
I0
sVOwnerUin
p2678
I0
sVMemberList
p2679
g50
sVAlias
p2680
g52
sVPYQuanPin
p2681
Vqiqi
p2682
sVSignature
p2683
g52
sVRemarkPYInitial
p2684
VYSQ
p2685
sVContactFlag
p2686
I1
sVUin
p2687
I0
sVNickName
p2688
V\u4e03\u4e03
p2689
sVAppAccountFlag
p2690
I0
sVVerifyFlag
p2691
I0
sVRemarkPYQuanPin
p2692
Vyansaiqi
p2693
sVHeadImgUrl
p2694
V/cgi-bin/mmwebwx-bin/webwxgeticon?seq=673560505&username=@cd597798ebe94a377fb361b9245576c53e7db9f4fa963bdcab2456c745002e8d&skey=@crypt_1196b7ca_75987b9c5ee6de072a03bdf8df0976ed
p2695
sVKeyWord
p2696
g52
sVProvince
p2697
g52
sVPYInitial
p2698
VQQ
p2699
sVRemarkName
p2700
V\u664f\u601d\u742a
p2701
sVIsOwner
p2702
I0
sVSex
p2703
I0
sVStarFriend
p2704
I0
sVHideInputBarFlag
p2705
I0
sVChatRoomId
p2706
I0
sVEncryChatRoomId
p2707
g52
sVAttrStatus
p2708
I103293
sVStatues
p2709
I0
stp2710
Rp2711
I1
bag34
(g38
g39
(dp2712
VUserName
p2713
V@70f4188824f74f27b1ae0b0a0d47af0f7fadb47a2cb284cd1e33b9e0e3594225
p2714
sVCity
p2715
V\u9ec4\u5188
p2716
sVSnsFlag
p2717
I1
sVDisplayName
p2718
g52
sVUniFriend
p2719
I0
sVMemberCount
p2720
I0
sVOwnerUin
p2721
I0
sVMemberList
p2722
g50
sVAlias
p2723
g52
sVPYQuanPin
p2724
Vpeifeng
p2725
sVSignature
p2726
g52
sVRemarkPYInitial
p2727
VZPL
p2728
sVContactFlag
p2729
I3
sVUin
p2730
I0
sVNickName
p2731
V\u57f9\u75af
p2732
sVAppAccountFlag
p2733
I0
sVVerifyFlag
p2734
I0
sVRemarkPYQuanPin
p2735
Vzhupeilin
p2736
sVHeadImgUrl
p2737
V/cgi-bin/mmwebwx-bin/webwxgeticon?seq=673559494&username=@70f4188824f74f27b1ae0b0a0d47af0f7fadb47a2cb284cd1e33b9e0e3594225&skey=@crypt_1196b7ca_75987b9c5ee6de072a03bdf8df0976ed
p2738
sVKeyWord
p2739
g52
sVProvince
p2740
V\u6e56\u5317
p2741
sVPYInitial
p2742
VPF
p2743
sVRemarkName
p2744
V\u6731\u57f9\u6797
p2745
sVIsOwner
p2746
I0
sVSex
p2747
I1
sVStarFriend
p2748
I0
sVHideInputBarFlag
p2749
I0
sVChatRoomId
p2750
I0
sVEncryChatRoomId
p2751
g52
sVAttrStatus
p2752
I102437
sVStatues
p2753
I0
stp2754
Rp2755
I1
bag34
(g38
g39
(dp2756
VUserName
p2757
V@f5103cbd7612301fbb4c57a626f690c6acd9f9ea1b23c8ea36cea578982a1494
p2758
sVCity
p2759
V\u9ec4\u77f3
p2760
sVSnsFlag
p2761
I17
sVDisplayName
p2762
g52
sVUniFriend
p2763
I0
sVMemberCount
p2764
I0
sVOwnerUin
p2765
I0
sVMemberList
p2766
g50
sVAlias
p2767
g52
sVPYQuanPin
p2768
V8
p2769
sVSignature
p2770
V\u68a6\u5728\u8fdc\u65b9\uff0c\u8def\u5728\u811a\u4e0b
p2771
sVRemarkPYInitial
p2772
VLQYXC
p2773
sVContactFlag
p2774
I259
sVUin
p2775
I0
sVNickName
p2776
V@8
p2777
sVAppAccountFlag
p2778
I0
sVVerifyFlag
p2779
I0
sVRemarkPYQuanPin
p2780
Vliangqianyongxuechang
p2781
sVHeadImgUrl
p2782
V/cgi-bin/mmwebwx-bin/webwxgeticon?seq=673557321&username=@f5103cbd7612301fbb4c57a626f690c6acd9f9ea1b23c8ea36cea578982a1494&skey=@crypt_1196b7ca_75987b9c5ee6de072a03bdf8df0976ed
p2783
sVKeyWord
p2784
g52
sVProvince
p2785
V\u6e56\u5317
p2786
sVPYInitial
p2787
g2769
sVRemarkName
p2788
V\u6881\u8c26\u52c7\u5b66\u957f
p2789
sVIsOwner
p2790
I0
sVSex
p2791
I1
sVStarFriend
p2792
I0
sVHideInputBarFlag
p2793
I0
sVChatRoomId
p2794
I0
sVEncryChatRoomId
p2795
g52
sVAttrStatus
p2796
I357
sVStatues
p2797
I0
stp2798
Rp2799
I1
batp2800
Rp2801
I1
bsS'chatroomList'
p2802
g34
(g35
g36
(lp2803
g34
(citchat.storage.templates
Chatroom
p2804
g39
(dp2805
VUserName
p2806
V@@05550dc24236b37bc13827aca577e8aa55b18d65256eb1a774b5a56c7b8a4742
p2807
sVCity
p2808
g52
sVDisplayName
p2809
g52
sVUniFriend
p2810
I0
sS'Self'
p2811
g34
(g38
g39
(dp2812
g41
g31
sg42
g43
sg44
g43
sg45
I0
sg46
I0
sg47
g34
(g35
g36
(lp2813
tp2814
Rp2815
I1
bsg51
g52
sg53
g52
sg54
I1445792084
sg55
I0
sg56
I0
sg57
g43
sg58
g43
sg59
g52
sg60
g52
sg61
I0
sg62
I0
sg63
I1
sg64
g43
sg65
I0
sg66
I17
sg67
I0
sg68
I0
sg69
g43
sg70
g71
sg72
I0
sg73
g74
sg75
g52
sg76
g77
sg78
I1
sg79
I0
sg80
I0
stp2816
Rp2817
I1
bsVMemberList
p2818
g34
(g35
g36
(lp2819
tp2820
Rp2821
I1
bsVPYQuanPin
p2822
g52
sVRemarkPYInitial
p2823
g52
sVSex
p2824
I0
sVAppAccountFlag
p2825
I0
sVVerifyFlag
p2826
I0
sVProvince
p2827
g52
sVKeyWord
p2828
g52
sVRemarkName
p2829
g52
sVPYInitial
p2830
g52
sVIsOwner
p2831
I0
sVChatRoomId
p2832
I0
sVHideInputBarFlag
p2833
I0
sVEncryChatRoomId
p2834
g52
sVAttrStatus
p2835
I0
sVSnsFlag
p2836
I0
sVMemberCount
p2837
I4
sVOwnerUin
p2838
I0
sVAlias
p2839
g52
sS'IsAdmin'
p2840
NsVSignature
p2841
g52
sVContactFlag
p2842
I0
sVNickName
p2843
V\u4e00\u8d77\u5b66\u4e60
p2844
sVRemarkPYQuanPin
p2845
g52
sVHeadImgUrl
p2846
V/cgi-bin/mmwebwx-bin/webwxgetheadimg?seq=0&username=@@05550dc24236b37bc13827aca577e8aa55b18d65256eb1a774b5a56c7b8a4742&skey=@crypt_1196b7ca_75987b9c5ee6de072a03bdf8df0976ed
p2847
sVUin
p2848
I0
sVStarFriend
p2849
I0
sVStatues
p2850
I1
stp2851
Rp2852
I1
bag34
(g2804
g39
(dp2853
VUserName
p2854
V@@e416428d523defea9e9159fc839aaff19b79ec45327b28973ca7fc186d7885f9
p2855
sVCity
p2856
g52
sVDisplayName
p2857
g52
sVUniFriend
p2858
I0
sg2811
g34
(g38
g39
(dp2859
g41
g31
sg42
g43
sg44
g43
sg45
I0
sg46
I0
sg47
g34
(g35
g36
(lp2860
tp2861
Rp2862
I1
bsg51
g52
sg53
g52
sg54
I1445792084
sg55
I0
sg56
I0
sg57
g43
sg58
g43
sg59
g52
sg60
g52
sg61
I0
sg62
I0
sg63
I1
sg64
g43
sg65
I0
sg66
I17
sg67
I0
sg68
I0
sg69
g43
sg70
g71
sg72
I0
sg73
g74
sg75
g52
sg76
g77
sg78
I1
sg79
I0
sg80
I0
stp2863
Rp2864
I1
bsVMemberList
p2865
g34
(g35
g36
(lp2866
tp2867
Rp2868
I1
bsVPYQuanPin
p2869
g52
sVRemarkPYInitial
p2870
g52
sVSex
p2871
I0
sVAppAccountFlag
p2872
I0
sVVerifyFlag
p2873
I0
sVProvince
p2874
g52
sVKeyWord
p2875
g52
sVRemarkName
p2876
g52
sVPYInitial
p2877
g52
sVIsOwner
p2878
I0
sVChatRoomId
p2879
I0
sVHideInputBarFlag
p2880
I0
sVEncryChatRoomId
p2881
g52
sVAttrStatus
p2882
I0
sVSnsFlag
p2883
I0
sVMemberCount
p2884
I24
sVOwnerUin
p2885
I0
sVAlias
p2886
g52
sg2840
NsVSignature
p2887
g52
sVContactFlag
p2888
I0
sVNickName
p2889
V\u7ae5\u91cc\u7ae5\u5916\u4e00\u5bb6\u4eba
p2890
sVRemarkPYQuanPin
p2891
g52
sVHeadImgUrl
p2892
V/cgi-bin/mmwebwx-bin/webwxgetheadimg?seq=0&username=@@e416428d523defea9e9159fc839aaff19b79ec45327b28973ca7fc186d7885f9&skey=@crypt_1196b7ca_75987b9c5ee6de072a03bdf8df0976ed
p2893
sVUin
p2894
I0
sVStarFriend
p2895
I0
sVStatues
p2896
I0
stp2897
Rp2898
I1
bag34
(g2804
g39
(dp2899
VUserName
p2900
V@@5d54cab68b228f2b3b7b2af7f2fc4b1773a593377c03de742977997866661e6b
p2901
sVCity
p2902
g52
sVDisplayName
p2903
g52
sVUniFriend
p2904
I0
sg2811
g34
(g38
g39
(dp2905
g41
g31
sg42
g43
sg44
g43
sg45
I0
sg46
I0
sg47
g34
(g35
g36
(lp2906
tp2907
Rp2908
I1
bsg51
g52
sg53
g52
sg54
I1445792084
sg55
I0
sg56
I0
sg57
g43
sg58
g43
sg59
g52
sg60
g52
sg61
I0
sg62
I0
sg63
I1
sg64
g43
sg65
I0
sg66
I17
sg67
I0
sg68
I0
sg69
g43
sg70
g71
sg72
I0
sg73
g74
sg75
g52
sg76
g77
sg78
I1
sg79
I0
sg80
I0
stp2909
Rp2910
I1
bsVMemberList
p2911
g34
(g35
g36
(lp2912
tp2913
Rp2914
I1
bsVPYQuanPin
p2915
g52
sVRemarkPYInitial
p2916
g52
sVSex
p2917
I0
sVAppAccountFlag
p2918
I0
sVVerifyFlag
p2919
I0
sVProvince
p2920
g52
sVKeyWord
p2921
g52
sVRemarkName
p2922
g52
sVPYInitial
p2923
g52
sVIsOwner
p2924
I0
sVChatRoomId
p2925
I0
sVHideInputBarFlag
p2926
I0
sVEncryChatRoomId
p2927
g52
sVAttrStatus
p2928
I0
sVSnsFlag
p2929
I0
sVMemberCount
p2930
I294
sVOwnerUin
p2931
I0
sVAlias
p2932
g52
sg2840
NsVSignature
p2933
g52
sVContactFlag
p2934
I0
sVNickName
p2935
V\u83f2\u5b87\u5065\u8eab\uff08\u6e56\u5e08\u5e97\uff09\u4e8c\u7fa4
p2936
sVRemarkPYQuanPin
p2937
g52
sVHeadImgUrl
p2938
V/cgi-bin/mmwebwx-bin/webwxgetheadimg?seq=0&username=@@5d54cab68b228f2b3b7b2af7f2fc4b1773a593377c03de742977997866661e6b&skey=@crypt_1196b7ca_75987b9c5ee6de072a03bdf8df0976ed
p2939
sVUin
p2940
I0
sVStarFriend
p2941
I0
sVStatues
p2942
I0
stp2943
Rp2944
I1
bag34
(g2804
g39
(dp2945
VUserName
p2946
V@@3d3cbea14d8e8d718ada967cdd2d703ed6a734a1e174f1deb40f605220001077
p2947
sVCity
p2948
g52
sVDisplayName
p2949
g52
sVUniFriend
p2950
I0
sg2811
g34
(g38
g39
(dp2951
g41
g31
sg42
g43
sg44
g43
sg45
I0
sg46
I0
sg47
g34
(g35
g36
(lp2952
tp2953
Rp2954
I1
bsg51
g52
sg53
g52
sg54
I1445792084
sg55
I0
sg56
I0
sg57
g43
sg58
g43
sg59
g52
sg60
g52
sg61
I0
sg62
I0
sg63
I1
sg64
g43
sg65
I0
sg66
I17
sg67
I0
sg68
I0
sg69
g43
sg70
g71
sg72
I0
sg73
g74
sg75
g52
sg76
g77
sg78
I1
sg79
I0
sg80
I0
stp2955
Rp2956
I1
bsVMemberList
p2957
g34
(g35
g36
(lp2958
tp2959
Rp2960
I1
bsVPYQuanPin
p2961
g52
sVRemarkPYInitial
p2962
g52
sVSex
p2963
I0
sVAppAccountFlag
p2964
I0
sVVerifyFlag
p2965
I0
sVProvince
p2966
g52
sVKeyWord
p2967
g52
sVRemarkName
p2968
g52
sVPYInitial
p2969
g52
sVIsOwner
p2970
I0
sVChatRoomId
p2971
I0
sVHideInputBarFlag
p2972
I0
sVEncryChatRoomId
p2973
g52
sVAttrStatus
p2974
I0
sVSnsFlag
p2975
I0
sVMemberCount
p2976
I202
sVOwnerUin
p2977
I0
sVAlias
p2978
g52
sg2840
NsVSignature
p2979
g52
sVContactFlag
p2980
I0
sVNickName
p2981
V\u8ba1\u79d1\u7f51\u7edc\u5b9e\u9a8c\u5ba4
p2982
sVRemarkPYQuanPin
p2983
g52
sVHeadImgUrl
p2984
V/cgi-bin/mmwebwx-bin/webwxgetheadimg?seq=0&username=@@3d3cbea14d8e8d718ada967cdd2d703ed6a734a1e174f1deb40f605220001077&skey=@crypt_1196b7ca_75987b9c5ee6de072a03bdf8df0976ed
p2985
sVUin
p2986
I0
sVStarFriend
p2987
I0
sVStatues
p2988
I0
stp2989
Rp2990
I1
bag34
(g2804
g39
(dp2991
VUserName
p2992
V@@e268e12fe5a1eb33485bcde3b624e06ea35afb1f6535cc6b8c8ee471217305d0
p2993
sVCity
p2994
g52
sVDisplayName
p2995
g52
sVUniFriend
p2996
I0
sg2811
g34
(g38
g39
(dp2997
g41
g31
sg42
g43
sg44
g43
sg45
I0
sg46
I0
sg47
g34
(g35
g36
(lp2998
tp2999
Rp3000
I1
bsg51
g52
sg53
g52
sg54
I1445792084
sg55
I0
sg56
I0
sg57
g43
sg58
g43
sg59
g52
sg60
g52
sg61
I0
sg62
I0
sg63
I1
sg64
g43
sg65
I0
sg66
I17
sg67
I0
sg68
I0
sg69
g43
sg70
g71
sg72
I0
sg73
g74
sg75
g52
sg76
g77
sg78
I1
sg79
I0
sg80
I0
stp3001
Rp3002
I1
bsVMemberList
p3003
g34
(g35
g36
(lp3004
tp3005
Rp3006
I1
bsVPYQuanPin
p3007
Vchanghuijiakankan
p3008
sVRemarkPYInitial
p3009
g52
sVSex
p3010
I0
sVAppAccountFlag
p3011
I0
sVVerifyFlag
p3012
I0
sVProvince
p3013
g52
sVKeyWord
p3014
g52
sVRemarkName
p3015
g52
sVPYInitial
p3016
VCHJKK
p3017
sVIsOwner
p3018
I0
sVChatRoomId
p3019
I0
sVHideInputBarFlag
p3020
I0
sVEncryChatRoomId
p3021
g52
sVAttrStatus
p3022
I0
sVSnsFlag
p3023
I0
sVMemberCount
p3024
I0
sVOwnerUin
p3025
I0
sVAlias
p3026
g52
sg2840
NsVSignature
p3027
g52
sVContactFlag
p3028
I3
sVNickName
p3029
V\u5e38\u56de\u5bb6\u770b\u770b
p3030
sVRemarkPYQuanPin
p3031
g52
sVHeadImgUrl
p3032
V/cgi-bin/mmwebwx-bin/webwxgetheadimg?seq=673556385&username=@@e268e12fe5a1eb33485bcde3b624e06ea35afb1f6535cc6b8c8ee471217305d0&skey=@crypt_1196b7ca_75987b9c5ee6de072a03bdf8df0976ed
p3033
sVUin
p3034
I0
sVStarFriend
p3035
I0
sVStatues
p3036
I1
stp3037
Rp3038
I1
batp3039
Rp3040
I1
bsS'nickName'
p3041
g74
sS'mpList'
p3042
g34
(g35
g36
(lp3043
g34
(citchat.storage.templates
MassivePlatform
p3044
g39
(dp3045
VUserName
p3046
V@5d7f0790b923406599616160236b5164
p3047
sVCity
p3048
g52
sVSnsFlag
p3049
I0
sVDisplayName
p3050
g52
sVUniFriend
p3051
I0
sVMemberCount
p3052
I0
sVOwnerUin
p3053
I0
sVMemberList
p3054
g50
sVAlias
p3055
g52
sVPYQuanPin
p3056
Vweixinzhifu
p3057
sVSignature
p3058
V\u5e2e\u52a9\u89e3\u51b3\u5fae\u4fe1\u652f\u4ed8\u4e2d\u9047\u5230\u7684\u56f0\u96be\uff0c\u6536\u96c6\u5173\u4e8e\u5fae\u4fe1\u652f\u4ed8\u7684\u5efa\u8bae\u53cd\u9988\u3002
p3059
sVRemarkPYInitial
p3060
g52
sVContactFlag
p3061
I1
sVUin
p3062
I0
sVNickName
p3063
V\u5fae\u4fe1\u652f\u4ed8
p3064
sVAppAccountFlag
p3065
I0
sVVerifyFlag
p3066
I24
sVRemarkPYQuanPin
p3067
g52
sVHeadImgUrl
p3068
V/cgi-bin/mmwebwx-bin/webwxgeticon?seq=646904271&username=@5d7f0790b923406599616160236b5164&skey=@crypt_1196b7ca_75987b9c5ee6de072a03bdf8df0976ed
p3069
sVKeyWord
p3070
Vgh_
p3071
sVProvince
p3072
V\u5e7f\u4e1c
p3073
sVPYInitial
p3074
VWXZF
p3075
sVRemarkName
p3076
g52
sVIsOwner
p3077
I0
sVSex
p3078
I0
sVStarFriend
p3079
I0
sVHideInputBarFlag
p3080
I0
sVChatRoomId
p3081
I0
sVEncryChatRoomId
p3082
g52
sVAttrStatus
p3083
I0
sVStatues
p3084
I0
stp3085
Rp3086
I1
bag34
(g3044
g39
(dp3087
VUserName
p3088
V@0c21b97ea25aa0529858fe365b0b57df
p3089
sVCity
p3090
V\u6df1\u5733
p3091
sVSnsFlag
p3092
I0
sVDisplayName
p3093
g52
sVUniFriend
p3094
I0
sVMemberCount
p3095
I0
sVOwnerUin
p3096
I0
sVMemberList
p3097
g50
sVAlias
p3098
g52
sVPYQuanPin
p3099
VQQanquanzhongxin
p3100
sVSignature
p3101
VQQ\u5b89\u5168\u4e2d\u5fc3\u5b98\u65b9\u5fae\u4fe1\u3002\u52aa\u529b\u4fdd\u62a4\u60a8\u7684QQ\u5b89\u5168\uff0c\u5173\u952e\u65f6\u523b\u53ca\u65f6\u63d0\u9192\uff0c\u968f\u65f6\u638c\u63e1\u5e10\u53f7\u5b89\u5168\u52a8\u6001\u3002
p3102
sVRemarkPYInitial
p3103
g52
sVContactFlag
p3104
I1
sVUin
p3105
I0
sVNickName
p3106
VQQ\u5b89\u5168\u4e2d\u5fc3
p3107
sVAppAccountFlag
p3108
I0
sVVerifyFlag
p3109
I24
sVRemarkPYQuanPin
p3110
g52
sVHeadImgUrl
p3111
V/cgi-bin/mmwebwx-bin/webwxgeticon?seq=633134106&username=@0c21b97ea25aa0529858fe365b0b57df&skey=@crypt_1196b7ca_75987b9c5ee6de072a03bdf8df0976ed
p3112
sVKeyWord
p3113
Vqqs
p3114
sVProvince
p3115
V\u5e7f\u4e1c
p3116
sVPYInitial
p3117
VQQAQZX
p3118
sVRemarkName
p3119
g52
sVIsOwner
p3120
I0
sVSex
p3121
I0
sVStarFriend
p3122
I0
sVHideInputBarFlag
p3123
I0
sVChatRoomId
p3124
I0
sVEncryChatRoomId
p3125
g52
sVAttrStatus
p3126
I0
sVStatues
p3127
I0
stp3128
Rp3129
I1
bag34
(g3044
g39
(dp3130
VUserName
p3131
V@28f64c78e0b27b6412d7eaa45c143501
p3132
sVCity
p3133
V\u6df1\u5733
p3134
sVSnsFlag
p3135
I0
sVDisplayName
p3136
g52
sVUniFriend
p3137
I0
sVMemberCount
p3138
I0
sVOwnerUin
p3139
I0
sVMemberList
p3140
g50
sVAlias
p3141
g52
sVPYQuanPin
p3142
Vtengxunshoujichongzhi
p3143
sVSignature
p3144
V\u5145\u8bdd\u8d39\u548c\u6d41\u91cf\u5c31\u6765\u94b1\u5305\u624b\u673a\u5145\u503c
p3145
sVRemarkPYInitial
p3146
g52
sVContactFlag
p3147
I1
sVUin
p3148
I0
sVNickName
p3149
V\u817e\u8baf\u624b\u673a\u5145\u503c
p3150
sVAppAccountFlag
p3151
I0
sVVerifyFlag
p3152
I24
sVRemarkPYQuanPin
p3153
g52
sVHeadImgUrl
p3154
V/cgi-bin/mmwebwx-bin/webwxgeticon?seq=646904274&username=@28f64c78e0b27b6412d7eaa45c143501&skey=@crypt_1196b7ca_75987b9c5ee6de072a03bdf8df0976ed
p3155
sVKeyWord
p3156
Vgh_
p3157
sVProvince
p3158
V\u5e7f\u4e1c
p3159
sVPYInitial
p3160
VTXSJCZ
p3161
sVRemarkName
p3162
g52
sVIsOwner
p3163
I0
sVSex
p3164
I0
sVStarFriend
p3165
I0
sVHideInputBarFlag
p3166
I0
sVChatRoomId
p3167
I0
sVEncryChatRoomId
p3168
g52
sVAttrStatus
p3169
I0
sVStatues
p3170
I0
stp3171
Rp3172
I1
bag34
(g3044
g39
(dp3173
VUserName
p3174
V@9b0009656edecdabecfb1c27a69331ee
p3175
sVCity
p3176
V\u6df1\u5733
p3177
sVSnsFlag
p3178
I0
sVDisplayName
p3179
g52
sVUniFriend
p3180
I0
sVMemberCount
p3181
I0
sVOwnerUin
p3182
I0
sVMemberList
p3183
g50
sVAlias
p3184
g52
sVPYQuanPin
p3185
Vyimishijie
p3186
sVSignature
p3187
Vemie\u4ebf\u89c5\uff0c\u4e00\u4e2a\u6709\u6e29\u5ea6\u7684\u4e92\u8054\u7f51\u79d1\u6280\u54c1\u724c\uff0c\u8ba9\u4ea7\u54c1\u591a\u4e00\u70b9\u4e50\u8da3\uff0c\u8ba9\u521b\u610f\u66f4\u9760\u8fd1\u751f\u6d3b\u3002
p3188
sVRemarkPYInitial
p3189
g52
sVContactFlag
p3190
I1
sVUin
p3191
I0
sVNickName
p3192
V\u4ebf\u89c5\u4e16\u754c
p3193
sVAppAccountFlag
p3194
I0
sVVerifyFlag
p3195
I8
sVRemarkPYQuanPin
p3196
g52
sVHeadImgUrl
p3197
V/cgi-bin/mmwebwx-bin/webwxgeticon?seq=655576903&username=@9b0009656edecdabecfb1c27a69331ee&skey=@crypt_1196b7ca_75987b9c5ee6de072a03bdf8df0976ed
p3198
sVKeyWord
p3199
Vgh_
p3200
sVProvince
p3201
V\u5e7f\u4e1c
p3202
sVPYInitial
p3203
VYMSJ
p3204
sVRemarkName
p3205
g52
sVIsOwner
p3206
I0
sVSex
p3207
I0
sVStarFriend
p3208
I0
sVHideInputBarFlag
p3209
I0
sVChatRoomId
p3210
I0
sVEncryChatRoomId
p3211
g52
sVAttrStatus
p3212
I0
sVStatues
p3213
I0
stp3214
Rp3215
I1
bag34
(g3044
g39
(dp3216
VUserName
p3217
V@dd29875a602f34ccff8138e78ee42356
p3218
sVCity
p3219
V\u6df1\u5733
p3220
sVSnsFlag
p3221
I0
sVDisplayName
p3222
g52
sVUniFriend
p3223
I0
sVMemberCount
p3224
I0
sVOwnerUin
p3225
I0
sVMemberList
p3226
g50
sVAlias
p3227
g52
sVPYQuanPin
p3228
Vtengxunkefu
p3229
sVSignature
p3230
V\u817e\u8baf\u5ba2\u670d\u5b98\u65b9\u516c\u4f17\u8d26\u53f7\uff0c\u4e3a\u60a8\u63d0\u4f9b\u624b\u6e38\u3001\u5fae\u652f\u4ed8\u7b49\u817e\u8baf\u624b\u673a\u7aef\u4e1a\u52a1\u7684\u81ea\u52a9\u53ca\u4eba\u5de5\u670d\u52a1\u3002
p3231
sVRemarkPYInitial
p3232
g52
sVContactFlag
p3233
I1
sVUin
p3234
I0
sVNickName
p3235
V\u817e\u8baf\u5ba2\u670d
p3236
sVAppAccountFlag
p3237
I0
sVVerifyFlag
p3238
I24
sVRemarkPYQuanPin
p3239
g52
sVHeadImgUrl
p3240
V/cgi-bin/mmwebwx-bin/webwxgeticon?seq=655579671&username=@dd29875a602f34ccff8138e78ee42356&skey=@crypt_1196b7ca_75987b9c5ee6de072a03bdf8df0976ed
p3241
sVKeyWord
p3242
Vgh_
p3243
sVProvince
p3244
V\u5e7f\u4e1c
p3245
sVPYInitial
p3246
VTXKF
p3247
sVRemarkName
p3248
g52
sVIsOwner
p3249
I0
sVSex
p3250
I0
sVStarFriend
p3251
I0
sVHideInputBarFlag
p3252
I0
sVChatRoomId
p3253
I0
sVEncryChatRoomId
p3254
g52
sVAttrStatus
p3255
I0
sVStatues
p3256
I0
stp3257
Rp3258
I1
bag34
(g3044
g39
(dp3259
VUserName
p3260
V@046f4dd8f687bcf80a6e8e66c2df042e
p3261
sVCity
p3262
V\u6f4d\u574a
p3263
sVSnsFlag
p3264
I0
sVDisplayName
p3265
g52
sVUniFriend
p3266
I0
sVMemberCount
p3267
I0
sVOwnerUin
p3268
I0
sVMemberList
p3269
g50
sVAlias
p3270
g52
sVPYQuanPin
p3271
Vguomulangzi
p3272
sVSignature
p3273
V\u679c\u6728\u6d6a\u5b50\u4ea4\u6d41\u5e73\u53f0\uff0c\u63d0\u4f9b\u5409\u4ed6\u8d44\u8baf\u4ee5\u53ca\u6559\u5b66\u63a8\u9001\u3002
p3274
sVRemarkPYInitial
p3275
g52
sVContactFlag
p3276
I1
sVUin
p3277
I0
sVNickName
p3278
V\u679c\u6728\u6d6a\u5b50
p3279
sVAppAccountFlag
p3280
I0
sVVerifyFlag
p3281
I8
sVRemarkPYQuanPin
p3282
g52
sVHeadImgUrl
p3283
V/cgi-bin/mmwebwx-bin/webwxgeticon?seq=655579815&username=@046f4dd8f687bcf80a6e8e66c2df042e&skey=@crypt_1196b7ca_75987b9c5ee6de072a03bdf8df0976ed
p3284
sVKeyWord
p3285
Vgh_
p3286
sVProvince
p3287
V\u5c71\u4e1c
p3288
sVPYInitial
p3289
VGMLZ
p3290
sVRemarkName
p3291
g52
sVIsOwner
p3292
I0
sVSex
p3293
I0
sVStarFriend
p3294
I0
sVHideInputBarFlag
p3295
I0
sVChatRoomId
p3296
I0
sVEncryChatRoomId
p3297
g52
sVAttrStatus
p3298
I0
sVStatues
p3299
I0
stp3300
Rp3301
I1
bag34
(g3044
g39
(dp3302
VUserName
p3303
V@b85bb6112bbda160ef2f9ac81c6b2875
p3304
sVCity
p3305
V\u6d77\u6dc0
p3306
sVSnsFlag
p3307
I0
sVDisplayName
p3308
g52
sVUniFriend
p3309
I0
sVMemberCount
p3310
I0
sVOwnerUin
p3311
I0
sVMemberList
p3312
g50
sVAlias
p3313
g52
sVPYQuanPin
p3314
Vlianxiangfuwu
p3315
sVSignature
p3316
V24\u5c0f\u65f6\u54a8\u8be2\u3001\u670d\u52a1\u7ad9\u70b9\u67e5\u8be2\u3001\u6d77\u91cf\u4f7f\u7528\u6280\u5de7\u548c\u7cbe\u5f69\u6587\u7ae0\uff0c\u66f4\u6709\u8c6a\u793c\u5927\u653e\u9001\uff01\u5343\u4e07\u7528\u6237\u90fd\u5173\u6ce8\u4e86\u6211\u4eec\uff0c\u60a8\u8fd8\u5728\u7b49\u4ec0\u4e48\uff1f
p3317
sVRemarkPYInitial
p3318
g52
sVContactFlag
p3319
I1
sVUin
p3320
I0
sVNickName
p3321
V\u8054\u60f3\u670d\u52a1
p3322
sVAppAccountFlag
p3323
I0
sVVerifyFlag
p3324
I24
sVRemarkPYQuanPin
p3325
g52
sVHeadImgUrl
p3326
V/cgi-bin/mmwebwx-bin/webwxgeticon?seq=661085771&username=@b85bb6112bbda160ef2f9ac81c6b2875&skey=@crypt_1196b7ca_75987b9c5ee6de072a03bdf8df0976ed
p3327
sVKeyWord
p3328
Vgh_
p3329
sVProvince
p3330
V\u5317\u4eac
p3331
sVPYInitial
p3332
VLXFW
p3333
sVRemarkName
p3334
g52
sVIsOwner
p3335
I0
sVSex
p3336
I0
sVStarFriend
p3337
I0
sVHideInputBarFlag
p3338
I0
sVChatRoomId
p3339
I0
sVEncryChatRoomId
p3340
g52
sVAttrStatus
p3341
I0
sVStatues
p3342
I0
stp3343
Rp3344
I1
bag34
(g3044
g39
(dp3345
VUserName
p3346
V@1d7d1c75238113c2e31f393e2ff9415b
p3347
sVCity
p3348
V\u8d35\u9633
p3349
sVSnsFlag
p3350
I0
sVDisplayName
p3351
g52
sVUniFriend
p3352
I0
sVMemberCount
p3353
I0
sVOwnerUin
p3354
I0
sVMemberList
p3355
g50
sVAlias
p3356
g52
sVPYQuanPin
p3357
Vxuegao
p3358
sVSignature
p3359
V\u4e13\u6ce8\u4e8e\u63d0\u4f9b\u5206\u4eab\u8bfe\u540e\u4e60\u9898\u7b54\u6848\u3001\u8003\u8bd5\u54a8\u8be2\u548c\u8003\u8bd5\u9898\u5e93\u3001\u4ee5\u53ca\u5404\u7c7b\u5de5\u5177\u8f6f\u4ef6\u3001\u89c6\u9891\u8d44\u6599\u548c\u8003\u8bd5\u8d44\u6599\u7b49...
p3360
sVRemarkPYInitial
p3361
g52
sVContactFlag
p3362
I1
sVUin
p3363
I0
sVNickName
p3364
V\u5b66\u7cd5
p3365
sVAppAccountFlag
p3366
I0
sVVerifyFlag
p3367
I24
sVRemarkPYQuanPin
p3368
g52
sVHeadImgUrl
p3369
V/cgi-bin/mmwebwx-bin/webwxgeticon?seq=661089234&username=@1d7d1c75238113c2e31f393e2ff9415b&skey=@crypt_1196b7ca_75987b9c5ee6de072a03bdf8df0976ed
p3370
sVKeyWord
p3371
Vgh_
p3372
sVProvince
p3373
V\u8d35\u5dde
p3374
sVPYInitial
p3375
VXG
p3376
sVRemarkName
p3377
g52
sVIsOwner
p3378
I0
sVSex
p3379
I0
sVStarFriend
p3380
I0
sVHideInputBarFlag
p3381
I0
sVChatRoomId
p3382
I0
sVEncryChatRoomId
p3383
g52
sVAttrStatus
p3384
I0
sVStatues
p3385
I0
stp3386
Rp3387
I1
bag34
(g3044
g39
(dp3388
VUserName
p3389
V@153297b5aeceb0d605ca1720c92e6a42
p3390
sVCity
p3391
V\u6df1\u5733
p3392
sVSnsFlag
p3393
I0
sVDisplayName
p3394
g52
sVUniFriend
p3395
I0
sVMemberCount
p3396
I0
sVOwnerUin
p3397
I0
sVMemberList
p3398
g50
sVAlias
p3399
g52
sVPYQuanPin
p3400
Vtengxunyouhuanquanzhongxin
p3401
sVSignature
p3402
V\u817e\u8baf\u6e38\u620f\u5b89\u5168\u4e2d\u5fc3\u5b98\u65b9\u5fae\u4fe1\u670d\u52a1\u53f7
p3403
sVRemarkPYInitial
p3404
g52
sVContactFlag
p3405
I1
sVUin
p3406
I0
sVNickName
p3407
V\u817e\u8baf\u6e38\u620f\u5b89\u5168\u4e2d\u5fc3
p3408
sVAppAccountFlag
p3409
I0
sVVerifyFlag
p3410
I24
sVRemarkPYQuanPin
p3411
g52
sVHeadImgUrl
p3412
V/cgi-bin/mmwebwx-bin/webwxgeticon?seq=661090644&username=@153297b5aeceb0d605ca1720c92e6a42&skey=@crypt_1196b7ca_75987b9c5ee6de072a03bdf8df0976ed
p3413
sVKeyWord
p3414
Vgh_
p3415
sVProvince
p3416
V\u5e7f\u4e1c
p3417
sVPYInitial
p3418
VTXYHAQZX
p3419
sVRemarkName
p3420
g52
sVIsOwner
p3421
I0
sVSex
p3422
I0
sVStarFriend
p3423
I0
sVHideInputBarFlag
p3424
I0
sVChatRoomId
p3425
I0
sVEncryChatRoomId
p3426
g52
sVAttrStatus
p3427
I0
sVStatues
p3428
I0
stp3429
Rp3430
I1
bag34
(g3044
g39
(dp3431
VUserName
p3432
V@159f6c4c59bb3523e545e273bd682a20
p3433
sVCity
p3434
V\u6df1\u5733
p3435
sVSnsFlag
p3436
I0
sVDisplayName
p3437
g52
sVUniFriend
p3438
I0
sVMemberCount
p3439
I0
sVOwnerUin
p3440
I0
sVMemberList
p3441
g50
sVAlias
p3442
g52
sVPYQuanPin
p3443
Vwangkazhushou
p3444
sVSignature
p3445
V\u201c\u738b\u5361\u201d\u4ea7\u54c1\u4e3a\u8054\u901a\u5b9a\u5236\u5316\u4ea7\u54c1\uff0c\u60a8\u53ef\u7545\u4eab\u6307\u5b9aAPP\u5e94\u7528\u6d41\u91cf\u514d\u8d39\uff0c\u5957\u9910\u8d44\u8d39\u66f4\u4f18\u60e0\uff0c\u738b\u5361\u798f\u5229\u793e \u7b49\u591a\u91cd\u7279\u6743\uff01\u4e86\u89e3\u66f4\u591a\u60ca\u559c\u5c3d\u5728\u201c\u738b\u5361\u52a9\u624b\u201d\uff0c\u66f4\u591a\u7279\u6743\u7b49\u4f60\u6765\u53d1\u73b0\uff01
p3446
sVRemarkPYInitial
p3447
g52
sVContactFlag
p3448
I1
sVUin
p3449
I0
sVNickName
p3450
V\u738b\u5361\u52a9\u624b
p3451
sVAppAccountFlag
p3452
I0
sVVerifyFlag
p3453
I24
sVRemarkPYQuanPin
p3454
g52
sVHeadImgUrl
p3455
V/cgi-bin/mmwebwx-bin/webwxgeticon?seq=661098395&username=@159f6c4c59bb3523e545e273bd682a20&skey=@crypt_1196b7ca_75987b9c5ee6de072a03bdf8df0976ed
p3456
sVKeyWord
p3457
Vgh_
p3458
sVProvince
p3459
V\u5e7f\u4e1c
p3460
sVPYInitial
p3461
VWKZS
p3462
sVRemarkName
p3463
g52
sVIsOwner
p3464
I0
sVSex
p3465
I0
sVStarFriend
p3466
I0
sVHideInputBarFlag
p3467
I0
sVChatRoomId
p3468
I0
sVEncryChatRoomId
p3469
g52
sVAttrStatus
p3470
I0
sVStatues
p3471
I0
stp3472
Rp3473
I1
bag34
(g3044
g39
(dp3474
VUserName
p3475
V@583f6c2452c66444e9586638a5366bc4
p3476
sVCity
p3477
V\u9ec4\u77f3
p3478
sVSnsFlag
p3479
I0
sVDisplayName
p3480
g52
sVUniFriend
p3481
I0
sVMemberCount
p3482
I0
sVOwnerUin
p3483
I0
sVMemberList
p3484
g50
sVAlias
p3485
g52
sVPYQuanPin
p3486
Vhushijike
p3487
sVSignature
p3488
V\u8fd9\u91cc\u662f\u6e56\u5317\u5e08\u8303\u5927\u5b66\u8ba1\u7b97\u673a\u79d1\u5b66\u4e0e\u6280\u672f\u5b66\u9662\u6700\u65b0\u516c\u4f17\u5e73\u53f0\u3002\u60f3\u8981\u4e86\u89e3\u8ba1\u7b97\u673a\u79d1\u5b66\u4e0e\u6280\u672f\u5b66\u9662\uff0c\u60f3\u8981\u83b7\u53d6\u5b66\u9662\u6700\u65b0\u4fe1\u606f\u6216\u8005\u60f3\u8981\u4e86\u89e3\u5b66\u9662\u5b66\u751f\u5de5\u4f5c\u3001\u8003\u8bd5\u4fe1\u606f\u7b49\uff0c\u5c31\u5feb\u6765\u5173\u6ce8\u5427~
p3489
sVRemarkPYInitial
p3490
g52
sVContactFlag
p3491
I1
sVUin
p3492
I0
sVNickName
p3493
V\u6e56\u5e08\u8ba1\u79d1
p3494
sVAppAccountFlag
p3495
I0
sVVerifyFlag
p3496
I8
sVRemarkPYQuanPin
p3497
g52
sVHeadImgUrl
p3498
V/cgi-bin/mmwebwx-bin/webwxgeticon?seq=655578681&username=@583f6c2452c66444e9586638a5366bc4&skey=@crypt_1196b7ca_75987b9c5ee6de072a03bdf8df0976ed
p3499
sVKeyWord
p3500
Vgh_
p3501
sVProvince
p3502
V\u6e56\u5317
p3503
sVPYInitial
p3504
VHSJK
p3505
sVRemarkName
p3506
g52
sVIsOwner
p3507
I0
sVSex
p3508
I0
sVStarFriend
p3509
I0
sVHideInputBarFlag
p3510
I0
sVChatRoomId
p3511
I0
sVEncryChatRoomId
p3512
g52
sVAttrStatus
p3513
I0
sVStatues
p3514
I0
stp3515
Rp3516
I1
bag34
(g3044
g39
(dp3517
VUserName
p3518
V@91be13b5b9ccce4e17b6d7dd68bac2fa
p3519
sVCity
p3520
V\u5cb3\u9633
p3521
sVSnsFlag
p3522
I0
sVDisplayName
p3523
g52
sVUniFriend
p3524
I0
sVMemberCount
p3525
I0
sVOwnerUin
p3526
I0
sVMemberList
p3527
g50
sVAlias
p3528
g52
sVPYQuanPin
p3529
Vjitazhuanjia
p3530
sVSignature
p3531
V\u5409\u4ed6\u4e13\u5bb6\u662f\u4e3a\u5e7f\u5927\u5409\u4ed6\u7231\u597d\u8005\u63d0\u4f9b\u5409\u4ed6\u4fe1\u606f\u3001\u827a\u672f\u7c7b\u8d44\u8baf\u3001\u8d2d\u7434\u54a8\u8be2\u3001\u5409\u4ed6\u767e\u79d1\u7c7b\u77e5\u8bc6\u4ee5\u53ca\u5409\u4ed6\u5b66\u4e60\u6280\u5de7\u7684\u5927\u4f17\u670d\u52a1\u5e73\u53f0\u3002\u5409\u4ed6\u5728\u3001\u6e29\u6696\u5728\uff01
p3532
sVRemarkPYInitial
p3533
g52
sVContactFlag
p3534
I1
sVUin
p3535
I0
sVNickName
p3536
V\u5409\u4ed6\u4e13\u5bb6
p3537
sVAppAccountFlag
p3538
I0
sVVerifyFlag
p3539
I24
sVRemarkPYQuanPin
p3540
g52
sVHeadImgUrl
p3541
V/cgi-bin/mmwebwx-bin/webwxgeticon?seq=661088796&username=@91be13b5b9ccce4e17b6d7dd68bac2fa&skey=@crypt_1196b7ca_75987b9c5ee6de072a03bdf8df0976ed
p3542
sVKeyWord
p3543
Vgh_
p3544
sVProvince
p3545
V\u6e56\u5357
p3546
sVPYInitial
p3547
VJTZJ
p3548
sVRemarkName
p3549
g52
sVIsOwner
p3550
I0
sVSex
p3551
I0
sVStarFriend
p3552
I0
sVHideInputBarFlag
p3553
I0
sVChatRoomId
p3554
I0
sVEncryChatRoomId
p3555
g52
sVAttrStatus
p3556
I0
sVStatues
p3557
I0
stp3558
Rp3559
I1
bag34
(g3044
g39
(dp3560
VUserName
p3561
V@36ccc8c18fe366a3c125653981dd46c0
p3562
sVCity
p3563
V\u9ec4\u77f3
p3564
sVSnsFlag
p3565
I0
sVDisplayName
p3566
g52
sVUniFriend
p3567
I0
sVMemberCount
p3568
I0
sVOwnerUin
p3569
I0
sVMemberList
p3570
g50
sVAlias
p3571
g52
sVPYQuanPin
p3572
Vhubeishifandaxue
p3573
sVSignature
p3574
V\u4e3a\u5927\u5bb6\u63d0\u4f9b\u65b0\u9c9c\u3001\u4e2a\u6027\u3001\u5bcc\u6709\u6b63\u80fd\u91cf\u7684\u6821\u56ed\u4fe1\u606f\u3002
p3575
sVRemarkPYInitial
p3576
g52
sVContactFlag
p3577
I1
sVUin
p3578
I0
sVNickName
p3579
V\u6e56\u5317\u5e08\u8303\u5927\u5b66
p3580
sVAppAccountFlag
p3581
I0
sVVerifyFlag
p3582
I24
sVRemarkPYQuanPin
p3583
g52
sVHeadImgUrl
p3584
V/cgi-bin/mmwebwx-bin/webwxgeticon?seq=655578128&username=@36ccc8c18fe366a3c125653981dd46c0&skey=@crypt_1196b7ca_75987b9c5ee6de072a03bdf8df0976ed
p3585
sVKeyWord
p3586
Vgh_
p3587
sVProvince
p3588
V\u6e56\u5317
p3589
sVPYInitial
p3590
VHBSFDX
p3591
sVRemarkName
p3592
g52
sVIsOwner
p3593
I0
sVSex
p3594
I0
sVStarFriend
p3595
I0
sVHideInputBarFlag
p3596
I0
sVChatRoomId
p3597
I0
sVEncryChatRoomId
p3598
g52
sVAttrStatus
p3599
I0
sVStatues
p3600
I0
stp3601
Rp3602
I1
bag34
(g3044
g39
(dp3603
VUserName
p3604
V@cd12da286082a8f68738444a502cc2fe
p3605
sVCity
p3606
V\u9ec4\u77f3
p3607
sVSnsFlag
p3608
I0
sVDisplayName
p3609
g52
sVUniFriend
p3610
I0
sVMemberCount
p3611
I0
sVOwnerUin
p3612
I0
sVMemberList
p3613
g50
sVAlias
p3614
g52
sVPYQuanPin
p3615
Vhushiqingnian
p3616
sVSignature
p3617
V\u6e56\u5c0f\u9752\u5e26\u4f60\u73a9\u8f6c\u5e08\u5927\uff0c\u5206\u5206\u949f\u83b7\u5f97\u6821\u56ed\u6700\u65b0\u8d44\u8baf\uff0c\u5404\u79cd\u6821\u56ed\u670d\u52a1\u529f\u80fd\u8ba9\u4f60\u4e00\u624b\u638c\u63e1\uff01
p3618
sVRemarkPYInitial
p3619
g52
sVContactFlag
p3620
I1
sVUin
p3621
I0
sVNickName
p3622
V\u6e56\u5e08\u9752\u5e74
p3623
sVAppAccountFlag
p3624
I0
sVVerifyFlag
p3625
I24
sVRemarkPYQuanPin
p3626
g52
sVHeadImgUrl
p3627
V/cgi-bin/mmwebwx-bin/webwxgeticon?seq=655578845&username=@cd12da286082a8f68738444a502cc2fe&skey=@crypt_1196b7ca_75987b9c5ee6de072a03bdf8df0976ed
p3628
sVKeyWord
p3629
Vgh_
p3630
sVProvince
p3631
V\u6e56\u5317
p3632
sVPYInitial
p3633
VHSQN
p3634
sVRemarkName
p3635
g52
sVIsOwner
p3636
I0
sVSex
p3637
I0
sVStarFriend
p3638
I0
sVHideInputBarFlag
p3639
I0
sVChatRoomId
p3640
I0
sVEncryChatRoomId
p3641
g52
sVAttrStatus
p3642
I0
sVStatues
p3643
I0
stp3644
Rp3645
I1
bag34
(g3044
g39
(dp3646
VUserName
p3647
V@a99720b5d471e4728c24f60020fa6948
p3648
sVCity
p3649
V\u671d\u9633
p3650
sVSnsFlag
p3651
I0
sVDisplayName
p3652
g52
sVUniFriend
p3653
I0
sVMemberCount
p3654
I0
sVOwnerUin
p3655
I0
sVMemberList
p3656
g50
sVAlias
p3657
g52
sVPYQuanPin
p3658
VMyEclipse
p3659
sVSignature
p3660
VMyEclipse\u5b98\u65b9\u4e2d\u6587\u7f51\u4e3a\u5e7f\u5927Java\u5f00\u53d1\u8005\u63d0\u4f9b\u6700\u4e13\u4e1a\u7684Java IDE MyEclipse\u7684\u4e2d\u6587\u4fe1\u606f\uff0cMyEclipse\u514d\u8d39\u4e0b\u8f7d\uff0cMyEclipse\u6b63\u7248\u8d2d\u4e70MyEclipse\u6280\u672f\u4ea4\u6d41\u7b49\u5168\u9762\u7684\u4ea7\u54c1\u670d\u52a1\u3002
p3661
sVRemarkPYInitial
p3662
g52
sVContactFlag
p3663
I1
sVUin
p3664
I0
sVNickName
p3665
VMyEclipse
p3666
sVAppAccountFlag
p3667
I0
sVVerifyFlag
p3668
I8
sVRemarkPYQuanPin
p3669
g52
sVHeadImgUrl
p3670
V/cgi-bin/mmwebwx-bin/webwxgeticon?seq=661104747&username=@a99720b5d471e4728c24f60020fa6948&skey=@crypt_1196b7ca_75987b9c5ee6de072a03bdf8df0976ed
p3671
sVKeyWord
p3672
Vgh_
p3673
sVProvince
p3674
V\u5317\u4eac
p3675
sVPYInitial
p3676
VMYECLIPSE
p3677
sVRemarkName
p3678
g52
sVIsOwner
p3679
I0
sVSex
p3680
I0
sVStarFriend
p3681
I0
sVHideInputBarFlag
p3682
I0
sVChatRoomId
p3683
I0
sVEncryChatRoomId
p3684
g52
sVAttrStatus
p3685
I0
sVStatues
p3686
I0
stp3687
Rp3688
I1
bag34
(g3044
g39
(dp3689
VUserName
p3690
V@327060a7643e84be252e0df85ebb2ffd
p3691
sVCity
p3692
V\u6d77\u6dc0
p3693
sVSnsFlag
p3694
I0
sVDisplayName
p3695
g52
sVUniFriend
p3696
I0
sVMemberCount
p3697
I0
sVOwnerUin
p3698
I0
sVMemberList
p3699
g50
sVAlias
p3700
g52
sVPYQuanPin
p3701
Vbianchengbang
p3702
sVSignature
p3703
V\u7f16\u7a0b\u5e2e\uff0c\u4e00\u4e2a\u5206\u4eab\u7f16\u7a0b\u77e5\u8bc6\u7684\u516c\u4f17\u53f7\uff0c\u7531C\u8bed\u8a00\u4e2d\u6587\u7f51\u7ad9\u957f\u300c\u4e25\u957f\u751f\u300d\u5168\u804c\u8fd0\u8425\u3002
p3704
sVRemarkPYInitial
p3705
g52
sVContactFlag
p3706
I1
sVUin
p3707
I0
sVNickName
p3708
V\u7f16\u7a0b\u5e2e
p3709
sVAppAccountFlag
p3710
I0
sVVerifyFlag
p3711
I8
sVRemarkPYQuanPin
p3712
g52
sVHeadImgUrl
p3713
V/cgi-bin/mmwebwx-bin/webwxgeticon?seq=661105478&username=@327060a7643e84be252e0df85ebb2ffd&skey=@crypt_1196b7ca_75987b9c5ee6de072a03bdf8df0976ed
p3714
sVKeyWord
p3715
Vgh_
p3716
sVProvince
p3717
V\u5317\u4eac
p3718
sVPYInitial
p3719
VBCB
p3720
sVRemarkName
p3721
g52
sVIsOwner
p3722
I0
sVSex
p3723
I0
sVStarFriend
p3724
I0
sVHideInputBarFlag
p3725
I0
sVChatRoomId
p3726
I0
sVEncryChatRoomId
p3727
g52
sVAttrStatus
p3728
I0
sVStatues
p3729
I0
stp3730
Rp3731
I1
bag34
(g3044
g39
(dp3732
VUserName
p3733
V@66974d2fd327ffda7c725889787ec216
p3734
sVCity
p3735
V\u6b66\u6c49
p3736
sVSnsFlag
p3737
I0
sVDisplayName
p3738
g52
sVUniFriend
p3739
I0
sVMemberCount
p3740
I0
sVOwnerUin
p3741
I0
sVMemberList
p3742
g50
sVAlias
p3743
g52
sVPYQuanPin
p3744
Vhubeiliantong
p3745
sVSignature
p3746
V\u63d0\u4f9b\u968f\u8eab\u670d\u52a1\uff0c\u65b9\u4fbf\u60a8\u67e5\u8be2\u8bdd\u8d39\u3001\u529e\u7406\u4e1a\u52a1\u3001\u4ea4\u8d39\u5145\u503c\u3001\u53c2\u52a0\u6d3b\u52a8\u3002
p3747
sVRemarkPYInitial
p3748
g52
sVContactFlag
p3749
I1
sVUin
p3750
I0
sVNickName
p3751
V\u6e56\u5317\u8054\u901a
p3752
sVAppAccountFlag
p3753
I0
sVVerifyFlag
p3754
I24
sVRemarkPYQuanPin
p3755
g52
sVHeadImgUrl
p3756
V/cgi-bin/mmwebwx-bin/webwxgeticon?seq=661111304&username=@66974d2fd327ffda7c725889787ec216&skey=@crypt_1196b7ca_75987b9c5ee6de072a03bdf8df0976ed
p3757
sVKeyWord
p3758
Vgh_
p3759
sVProvince
p3760
V\u6e56\u5317
p3761
sVPYInitial
p3762
VHBLT
p3763
sVRemarkName
p3764
g52
sVIsOwner
p3765
I0
sVSex
p3766
I0
sVStarFriend
p3767
I0
sVHideInputBarFlag
p3768
I0
sVChatRoomId
p3769
I0
sVEncryChatRoomId
p3770
g52
sVAttrStatus
p3771
I0
sVStatues
p3772
I0
stp3773
Rp3774
I1
bag34
(g3044
g39
(dp3775
VUserName
p3776
V@da79c1d1bd6164e5bfbfe7b2e244b1b9
p3777
sVCity
p3778
V\u9ec4\u77f3
p3779
sVSnsFlag
p3780
I0
sVDisplayName
p3781
g52
sVUniFriend
p3782
I0
sVMemberCount
p3783
I0
sVOwnerUin
p3784
I0
sVMemberList
p3785
g50
sVAlias
p3786
g52
sVPYQuanPin
p3787
Vhubeishifandaxuexueshenghui
p3788
sVSignature
p3789
V\u5b66\u751f\u4f1a\u5e26\u4f60\u4e86\u89e3\u6700\u65b0\u7684\u5e08\u5927\u5feb\u8baf\uff0c\u5404\u79cd\u6821\u56ed\u6d3b\u52a8\u8ba9\u4f60\u5c3d\u6536\u773c\u5e95\uff01
p3790
sVRemarkPYInitial
p3791
g52
sVContactFlag
p3792
I1
sVUin
p3793
I0
sVNickName
p3794
V\u6e56\u5317\u5e08\u8303\u5927\u5b66\u5b66\u751f\u4f1a
p3795
sVAppAccountFlag
p3796
I0
sVVerifyFlag
p3797
I24
sVRemarkPYQuanPin
p3798
g52
sVHeadImgUrl
p3799
V/cgi-bin/mmwebwx-bin/webwxgeticon?seq=661112458&username=@da79c1d1bd6164e5bfbfe7b2e244b1b9&skey=@crypt_1196b7ca_75987b9c5ee6de072a03bdf8df0976ed
p3800
sVKeyWord
p3801
Vgh_
p3802
sVProvince
p3803
V\u6e56\u5317
p3804
sVPYInitial
p3805
VHBSFDXXSH
p3806
sVRemarkName
p3807
g52
sVIsOwner
p3808
I0
sVSex
p3809
I0
sVStarFriend
p3810
I0
sVHideInputBarFlag
p3811
I0
sVChatRoomId
p3812
I0
sVEncryChatRoomId
p3813
g52
sVAttrStatus
p3814
I0
sVStatues
p3815
I0
stp3816
Rp3817
I1
bag34
(g3044
g39
(dp3818
VUserName
p3819
V@a313158b668839bb8a55d4b281fac1e2
p3820
sVCity
p3821
V\u671d\u9633
p3822
sVSnsFlag
p3823
I0
sVDisplayName
p3824
g52
sVUniFriend
p3825
I0
sVMemberCount
p3826
I0
sVOwnerUin
p3827
I0
sVMemberList
p3828
g50
sVAlias
p3829
g52
sVPYQuanPin
p3830
Vchengxurensheng
p3831
sVSignature
p3832
V\u70b9\u51fb\u5173\u6ce8\uff0c\u798f\u5229\u81ea\u52a8\u56de\u590d\u54e6\uff01\u5173\u6ce8\u7a0b\u5e8f\u5458\u751f\u6d3b\uff0c\u6c47\u805a\u5f00\u53d1\u8f76\u4e8b\u3002
p3833
sVRemarkPYInitial
p3834
g52
sVContactFlag
p3835
I1
sVUin
p3836
I0
sVNickName
p3837
V\u7a0b\u5e8f\u4eba\u751f
p3838
sVAppAccountFlag
p3839
I0
sVVerifyFlag
p3840
I24
sVRemarkPYQuanPin
p3841
g52
sVHeadImgUrl
p3842
V/cgi-bin/mmwebwx-bin/webwxgeticon?seq=661112536&username=@a313158b668839bb8a55d4b281fac1e2&skey=@crypt_1196b7ca_75987b9c5ee6de072a03bdf8df0976ed
p3843
sVKeyWord
p3844
Vgh_
p3845
sVProvince
p3846
V\u5317\u4eac
p3847
sVPYInitial
p3848
VCXRS
p3849
sVRemarkName
p3850
g52
sVIsOwner
p3851
I0
sVSex
p3852
I0
sVStarFriend
p3853
I0
sVHideInputBarFlag
p3854
I0
sVChatRoomId
p3855
I0
sVEncryChatRoomId
p3856
g52
sVAttrStatus
p3857
I0
sVStatues
p3858
I0
stp3859
Rp3860
I1
bag34
(g3044
g39
(dp3861
VUserName
p3862
V@df1f80b5521922746a163ff6e6ea5a42
p3863
sVCity
p3864
V\u6d77\u6dc0
p3865
sVSnsFlag
p3866
I0
sVDisplayName
p3867
g52
sVUniFriend
p3868
I0
sVMemberCount
p3869
I0
sVOwnerUin
p3870
I0
sVMemberList
p3871
g50
sVAlias
p3872
g52
sVPYQuanPin
p3873
Vdaokebaba
p3874
sVSignature
p3875
V\u9053\u5ba2\u5df4\u5df4\uff0c\u5728\u7ebf\u6587\u6863\u5206\u4eab\u5e73\u53f0\uff0c\u81f4\u529b\u4e8e\u4e3a\u6570\u4ebf\u4e92\u8054\u7f51\u7528\u6237\u6253\u9020\u81ea\u7531\u4ea4\u6d41\u4e0e\u5e73\u7b49\u5b66\u4e60\u7684\u5f00\u653e\u5f0f\u4e92\u52a8\u5e73\u53f0\u3002
p3876
sVRemarkPYInitial
p3877
g52
sVContactFlag
p3878
I1
sVUin
p3879
I0
sVNickName
p3880
V\u9053\u5ba2\u5df4\u5df4
p3881
sVAppAccountFlag
p3882
I0
sVVerifyFlag
p3883
I24
sVRemarkPYQuanPin
p3884
g52
sVHeadImgUrl
p3885
V/cgi-bin/mmwebwx-bin/webwxgeticon?seq=671056346&username=@df1f80b5521922746a163ff6e6ea5a42&skey=@crypt_1196b7ca_75987b9c5ee6de072a03bdf8df0976ed
p3886
sVKeyWord
p3887
Vgh_
p3888
sVProvince
p3889
V\u5317\u4eac
p3890
sVPYInitial
p3891
VDKBB
p3892
sVRemarkName
p3893
g52
sVIsOwner
p3894
I0
sVSex
p3895
I0
sVStarFriend
p3896
I0
sVHideInputBarFlag
p3897
I0
sVChatRoomId
p3898
I0
sVEncryChatRoomId
p3899
g52
sVAttrStatus
p3900
I0
sVStatues
p3901
I0
stp3902
Rp3903
I1
bag34
(g3044
g39
(dp3904
VUserName
p3905
V@180ff94ebfbfbdc11f4b4d19eaa0d062717a08bd385d78b52279efeab7be674a
p3906
sVCity
p3907
V\u5e7f\u5dde
p3908
sVSnsFlag
p3909
I0
sVDisplayName
p3910
g52
sVUniFriend
p3911
I0
sVMemberCount
p3912
I0
sVOwnerUin
p3913
I0
sVMemberList
p3914
g50
sVAlias
p3915
g52
sVPYQuanPin
p3916
Vweixingongzhongpingtai
p3917
sVSignature
p3918
V\u5e2e\u52a9\u60a8\u4e86\u89e3\u516c\u4f17\u5e10\u53f7\uff0c\u66f4\u597d\u5730\u8fd0\u8425\u5fae\u4fe1\u516c\u4f17\u5e10\u53f7\u3002
p3919
sVRemarkPYInitial
p3920
g52
sVContactFlag
p3921
I1
sVUin
p3922
I0
sVNickName
p3923
V\u5fae\u4fe1\u516c\u4f17\u5e73\u53f0
p3924
sVAppAccountFlag
p3925
I0
sVVerifyFlag
p3926
I24
sVRemarkPYQuanPin
p3927
g52
sVHeadImgUrl
p3928
V/cgi-bin/mmwebwx-bin/webwxgeticon?seq=673554617&username=@180ff94ebfbfbdc11f4b4d19eaa0d062717a08bd385d78b52279efeab7be674a&skey=@crypt_1196b7ca_75987b9c5ee6de072a03bdf8df0976ed
p3929
sVKeyWord
p3930
Vwei
p3931
sVProvince
p3932
V\u5e7f\u4e1c
p3933
sVPYInitial
p3934
VWXGZPT
p3935
sVRemarkName
p3936
g52
sVIsOwner
p3937
I0
sVSex
p3938
I0
sVStarFriend
p3939
I0
sVHideInputBarFlag
p3940
I0
sVChatRoomId
p3941
I0
sVEncryChatRoomId
p3942
g52
sVAttrStatus
p3943
I0
sVStatues
p3944
I0
stp3945
Rp3946
I1
bag34
(g3044
g39
(dp3947
VUserName
p3948
V@f751755ce6cf2b6bc2d7cc5a47082489
p3949
sVCity
p3950
V\u90d1\u5dde
p3951
sVSnsFlag
p3952
I0
sVDisplayName
p3953
g52
sVUniFriend
p3954
I0
sVMemberCount
p3955
I0
sVOwnerUin
p3956
I0
sVMemberList
p3957
g50
sVAlias
p3958
g52
sVPYQuanPin
p3959
VpangmenzuodaoPPT
p3960
sVSignature
p3961
V\u65c1\u95e8\u5de6\u9053\u65b0\u4e16\u754c\u3002\u7ecf\u5e38\u5199\u4e00\u4e9b\u5173\u4e8e PPT \u8bbe\u8ba1\u601d\u7ef4\u7684\u6587\u7ae0\u3002
p3962
sVRemarkPYInitial
p3963
g52
sVContactFlag
p3964
I1
sVUin
p3965
I0
sVNickName
p3966
V\u65c1\u95e8\u5de6\u9053PPT
p3967
sVAppAccountFlag
p3968
I0
sVVerifyFlag
p3969
I24
sVRemarkPYQuanPin
p3970
g52
sVHeadImgUrl
p3971
V/cgi-bin/mmwebwx-bin/webwxgeticon?seq=673556249&username=@f751755ce6cf2b6bc2d7cc5a47082489&skey=@crypt_1196b7ca_75987b9c5ee6de072a03bdf8df0976ed
p3972
sVKeyWord
p3973
Vgh_
p3974
sVProvince
p3975
V\u6cb3\u5357
p3976
sVPYInitial
p3977
VPMZDPPT
p3978
sVRemarkName
p3979
g52
sVIsOwner
p3980
I0
sVSex
p3981
I0
sVStarFriend
p3982
I0
sVHideInputBarFlag
p3983
I0
sVChatRoomId
p3984
I0
sVEncryChatRoomId
p3985
g52
sVAttrStatus
p3986
I0
sVStatues
p3987
I0
stp3988
Rp3989
I1
bag34
(g3044
g39
(dp3990
VUserName
p3991
V@b665ed36eed58be5a981667c06107cfd
p3992
sVCity
p3993
V\u671d\u9633
p3994
sVSnsFlag
p3995
I0
sVDisplayName
p3996
g52
sVUniFriend
p3997
I0
sVMemberCount
p3998
I0
sVOwnerUin
p3999
I0
sVMemberList
p4000
g50
sVAlias
p4001
g52
sVPYQuanPin
p4002
VCSDN
p4003
sVSignature
p4004
V\u8fd9\u91cc\uff0c\u6709\u4f5c\u4e3a\u6280\u672f\u4eba\u5fc5\u987b\u77e5\u9053\u7684\u4e1a\u754c\u5927\u4e8b\u3002
p4005
sVRemarkPYInitial
p4006
g52
sVContactFlag
p4007
I1
sVUin
p4008
I0
sVNickName
p4009
VCSDN
p4010
sVAppAccountFlag
p4011
I0
sVVerifyFlag
p4012
I24
sVRemarkPYQuanPin
p4013
g52
sVHeadImgUrl
p4014
V/cgi-bin/mmwebwx-bin/webwxgeticon?seq=673557345&username=@b665ed36eed58be5a981667c06107cfd&skey=@crypt_1196b7ca_75987b9c5ee6de072a03bdf8df0976ed
p4015
sVKeyWord
p4016
Vgh_
p4017
sVProvince
p4018
V\u5317\u4eac
p4019
sVPYInitial
p4020
VCSDN
p4021
sVRemarkName
p4022
g52
sVIsOwner
p4023
I0
sVSex
p4024
I0
sVStarFriend
p4025
I0
sVHideInputBarFlag
p4026
I0
sVChatRoomId
p4027
I0
sVEncryChatRoomId
p4028
g52
sVAttrStatus
p4029
I0
sVStatues
p4030
I0
stp4031
Rp4032
I1
bag34
(g3044
g39
(dp4033
VUserName
p4034
V@0d76c52e3ddccb4bbe0701b7a56d60ef
p4035
sVCity
p4036
V\u5408\u80a5
p4037
sVSnsFlag
p4038
I0
sVDisplayName
p4039
g52
sVUniFriend
p4040
I0
sVMemberCount
p4041
I0
sVOwnerUin
p4042
I0
sVMemberList
p4043
g50
sVAlias
p4044
g52
sVPYQuanPin
p4045
Vhuamikeji
p4046
sVSignature
p4047
V\u534e\u7c73\u79d1\u6280\u516c\u53f8\u5b98\u65b9\u516c\u4f17\u53f7\uff0c\u4e3a\u534e\u7c73\u79d1\u6280\u516c\u53f8\u76f8\u5173\u4ea7\u54c1\u63d0\u4f9b\u670d\u52a1\u3002
p4048
sVRemarkPYInitial
p4049
g52
sVContactFlag
p4050
I3
sVUin
p4051
I0
sVNickName
p4052
V\u534e\u7c73\u79d1\u6280
p4053
sVAppAccountFlag
p4054
I0
sVVerifyFlag
p4055
I24
sVRemarkPYQuanPin
p4056
g52
sVHeadImgUrl
p4057
V/cgi-bin/mmwebwx-bin/webwxgeticon?seq=673558672&username=@0d76c52e3ddccb4bbe0701b7a56d60ef&skey=@crypt_1196b7ca_75987b9c5ee6de072a03bdf8df0976ed
p4058
sVKeyWord
p4059
Vgh_
p4060
sVProvince
p4061
V\u5b89\u5fbd
p4062
sVPYInitial
p4063
VHMKJ
p4064
sVRemarkName
p4065
g52
sVIsOwner
p4066
I0
sVSex
p4067
I0
sVStarFriend
p4068
I0
sVHideInputBarFlag
p4069
I0
sVChatRoomId
p4070
I0
sVEncryChatRoomId
p4071
g52
sVAttrStatus
p4072
I0
sVStatues
p4073
I0
stp4074
Rp4075
I1
bag34
(g3044
g39
(dp4076
VUserName
p4077
V@6ee90678b2037760ad9ca4e4c20902fb
p4078
sVCity
p4079
V\u676d\u5dde
p4080
sVSnsFlag
p4081
I0
sVDisplayName
p4082
g52
sVUniFriend
p4083
I0
sVMemberCount
p4084
I0
sVOwnerUin
p4085
I0
sVMemberList
p4086
g50
sVAlias
p4087
g52
sVPYQuanPin
p4088
Vqiegongxiangxiyi
p4089
sVSignature
p4090
V\u4f01\u9e45\u5171\u4eab\u6d17\u8863\uff0c\u626b\u7801\u652f\u4ed8\u81ea\u52a8\u542f\u52a8\u673a\u5668\uff0c\u63d0\u4f9b\u9884\u7ea6\uff0c\u79bb\u7ebf\u542f\u52a8\u529f\u80fd
p4091
sVRemarkPYInitial
p4092
g52
sVContactFlag
p4093
I1
sVUin
p4094
I0
sVNickName
p4095
V\u4f01\u9e45\u5171\u4eab\u6d17\u8863
p4096
sVAppAccountFlag
p4097
I0
sVVerifyFlag
p4098
I24
sVRemarkPYQuanPin
p4099
g52
sVHeadImgUrl
p4100
V/cgi-bin/mmwebwx-bin/webwxgeticon?seq=673560248&username=@6ee90678b2037760ad9ca4e4c20902fb&skey=@crypt_1196b7ca_75987b9c5ee6de072a03bdf8df0976ed
p4101
sVKeyWord
p4102
Vgh_
p4103
sVProvince
p4104
V\u6d59\u6c5f
p4105
sVPYInitial
p4106
VQEGXXY
p4107
sVRemarkName
p4108
g52
sVIsOwner
p4109
I0
sVSex
p4110
I0
sVStarFriend
p4111
I0
sVHideInputBarFlag
p4112
I0
sVChatRoomId
p4113
I0
sVEncryChatRoomId
p4114
g52
sVAttrStatus
p4115
I0
sVStatues
p4116
I0
stp4117
Rp4118
I1
batp4119
Rp4120
I1
bssS'loginInfo'
p4121
(dp4122
S'SyncKey'
p4123
(dp4124
VCount
p4125
I4
sVList
p4126
(lp4127
(dp4128
VVal
p4129
I673560927
sVKey
p4130
I1
sa(dp4131
VVal
p4132
I673561052
sVKey
p4133
I2
sa(dp4134
VVal
p4135
I673560898
sVKey
p4136
I3
sa(dp4137
VVal
p4138
I1530450297
sVKey
p4139
I1000
sassS'syncUrl'
p4140
S'https://webpush.wx.qq.com/cgi-bin/mmwebwx-bin'
p4141
sS'skey'
p4142
V@crypt_1196b7ca_75987b9c5ee6de072a03bdf8df0976ed
p4143
sS'wxuin'
p4144
V1445792084
p4145
sS'synckey'
p4146
S'1_673560927|2_673561052|3_673560898|1000_1530450297'
p4147
sS'url'
p4148
Vhttps://wx.qq.com/cgi-bin/mmwebwx-bin
p4149
sS'pass_ticket'
p4150
VrdU7H2mq2hkXRO1yQoALGaOHpb3d%2F7uf5Xz3ycwhXMiJKbD6ovAvNPQ%2BwqMXyxsY
p4151
sS'wxsid'
p4152
VaqQR/6XHED5M8cqe
p4153
sS'BaseRequest'
p4154
(dp4155
g54
g4145
sS'Skey'
p4156
g4143
sS'DeviceID'
p4157
g4151
sS'Sid'
p4158
g4153
ssS'User'
p4159
g34
(g38
g39
(dp4160
g41
g31
sg42
g43
sg44
g43
sg45
I0
sg47
g50
sg51
g52
sg53
g52
sg78
I1
sg55
I0
sg56
I0
sg57
g43
sg58
g43
sg59
g52
sg60
g52
sg61
I0
sg62
I0
sg63
I1
sg64
g43
sg65
I0
sg68
I0
sg66
I17
sg67
I0
sg46
I0
sg69
g43
sg70
g71
sg72
I0
sg73
g74
sg75
g52
sg76
g77
sg54
I1445792084
sg79
I0
sg80
I0
stp4161
Rp4162
I1
bsS'fileUrl'
p4163
S'https://file.wx.qq.com/cgi-bin/mmwebwx-bin'
p4164
sS'InviteStartCount'
p4165
I40
sS'deviceid'
p4166
S'e940301740361787'
p4167
ss.